Component: ARM Compiler 5.06 update 7 (build 960) Tool: armlink [4d3601]

==============================================================================

Section Cross References

    startup_stm32f429xx.o(RESET) refers to startup_stm32f429xx.o(STACK) for __initial_sp
    startup_stm32f429xx.o(RESET) refers to startup_stm32f429xx.o(.text) for Reset_Handler
    startup_stm32f429xx.o(RESET) refers to stm32f4xx_it.o(i.NMI_Handler) for NMI_Handler
    startup_stm32f429xx.o(RESET) refers to stm32f4xx_it.o(i.HardFault_Handler) for HardFault_Handler
    startup_stm32f429xx.o(RESET) refers to stm32f4xx_it.o(i.MemManage_Handler) for MemManage_Handler
    startup_stm32f429xx.o(RESET) refers to stm32f4xx_it.o(i.BusFault_Handler) for BusFault_Handler
    startup_stm32f429xx.o(RESET) refers to stm32f4xx_it.o(i.UsageFault_Handler) for UsageFault_Handler
    startup_stm32f429xx.o(RESET) refers to port.o(.emb_text) for SVC_Handler
    startup_stm32f429xx.o(RESET) refers to stm32f4xx_it.o(i.DebugMon_Handler) for DebugMon_Handler
    startup_stm32f429xx.o(RESET) refers to stm32f4xx_it.o(i.SysTick_Handler) for SysTick_Handler
    startup_stm32f429xx.o(RESET) refers to stm32f4xx_it.o(i.DMA1_Stream1_IRQHandler) for DMA1_Stream1_IRQHandler
    startup_stm32f429xx.o(RESET) refers to stm32f4xx_it.o(i.CAN1_RX0_IRQHandler) for CAN1_RX0_IRQHandler
    startup_stm32f429xx.o(RESET) refers to stm32f4xx_it.o(i.TIM4_IRQHandler) for TIM4_IRQHandler
    startup_stm32f429xx.o(RESET) refers to stm32f4xx_it.o(i.USART1_IRQHandler) for USART1_IRQHandler
    startup_stm32f429xx.o(RESET) refers to stm32f4xx_it.o(i.USART2_IRQHandler) for USART2_IRQHandler
    startup_stm32f429xx.o(RESET) refers to stm32f4xx_it.o(i.USART3_IRQHandler) for USART3_IRQHandler
    startup_stm32f429xx.o(RESET) refers to stm32f4xx_it.o(i.CAN2_RX0_IRQHandler) for CAN2_RX0_IRQHandler
    startup_stm32f429xx.o(RESET) refers to stm32f4xx_it.o(i.CAN2_RX1_IRQHandler) for CAN2_RX1_IRQHandler
    startup_stm32f429xx.o(RESET) refers to stm32f4xx_it.o(i.USART6_IRQHandler) for USART6_IRQHandler
    startup_stm32f429xx.o(.text) refers to system_stm32f4xx.o(i.SystemInit) for SystemInit
    startup_stm32f429xx.o(.text) refers to entry.o(.ARM.Collect$$$$00000000) for __main
    main.o(i.MX_GPIO_Init) refers to stm32f4xx_hal_gpio.o(i.HAL_GPIO_Init) for HAL_GPIO_Init
    main.o(i.MX_GPIO_Init) refers to stm32f4xx_hal_gpio.o(i.HAL_GPIO_WritePin) for HAL_GPIO_WritePin
    main.o(i.SystemClock_Config) refers to stm32f4xx_hal_rcc.o(i.HAL_RCC_OscConfig) for HAL_RCC_OscConfig
    main.o(i.SystemClock_Config) refers to stm32f4xx_hal_pwr_ex.o(i.HAL_PWREx_EnableOverDrive) for HAL_PWREx_EnableOverDrive
    main.o(i.SystemClock_Config) refers to stm32f4xx_hal_rcc.o(i.HAL_RCC_ClockConfig) for HAL_RCC_ClockConfig
    main.o(i.main) refers to stm32f4xx_hal.o(i.HAL_Init) for HAL_Init
    main.o(i.main) refers to main.o(i.SystemClock_Config) for SystemClock_Config
    main.o(i.main) refers to chassis.o(i.CHASSIS_Init) for CHASSIS_Init
    main.o(i.main) refers to chassis.o(i.CHASSIS_PID_Init) for CHASSIS_PID_Init
    main.o(i.main) refers to superstratum.o(i.Hair_ring_Init) for Hair_ring_Init
    main.o(i.main) refers to superstratum.o(i.ALL_PID_SET) for ALL_PID_SET
    main.o(i.main) refers to main.o(i.MX_GPIO_Init) for MX_GPIO_Init
    main.o(i.main) refers to can.o(i.MX_CAN1_Init) for MX_CAN1_Init
    main.o(i.main) refers to can.o(i.MX_CAN2_Init1) for MX_CAN2_Init1
    main.o(i.main) refers to tim.o(i.MX_TIM4_Init) for MX_TIM4_Init
    main.o(i.main) refers to usart.o(i.MX_DMA_Init) for MX_DMA_Init
    main.o(i.main) refers to can.o(i.fifio_Init) for fifio_Init
    main.o(i.main) refers to usart.o(i.MX_USART1_UART_Init) for MX_USART1_UART_Init
    main.o(i.main) refers to usart.o(i.MX_USART2_UART_Init) for MX_USART2_UART_Init
    main.o(i.main) refers to usart.o(i.MX_USART3_UART_Init) for MX_USART3_UART_Init
    main.o(i.main) refers to usart.o(i.MX_USART6_UART_Init) for MX_USART6_UART_Init
    main.o(i.main) refers to freertos.o(i.MX_FREERTOS_Init) for MX_FREERTOS_Init
    main.o(i.main) refers to cmsis_os.o(i.osKernelStart) for osKernelStart
    main.o(i.main) refers to stm32f4xx_hal.o(i.HAL_Delay) for HAL_Delay
    main.o(i.main) refers to main.o(.data) for .data
    main.o(i.main) refers to main.o(.bss) for .bss
    stm32f4xx_it.o(i.CAN1_RX0_IRQHandler) refers to stm32f4xx_hal_can.o(i.HAL_CAN_IRQHandler) for HAL_CAN_IRQHandler
    stm32f4xx_it.o(i.CAN1_RX0_IRQHandler) refers to can.o(.bss) for hcan1
    stm32f4xx_it.o(i.CAN2_RX0_IRQHandler) refers to stm32f4xx_hal_can.o(i.HAL_CAN_IRQHandler) for HAL_CAN_IRQHandler
    stm32f4xx_it.o(i.CAN2_RX0_IRQHandler) refers to stm32f4xx_it.o(.data) for .data
    stm32f4xx_it.o(i.CAN2_RX0_IRQHandler) refers to can.o(.bss) for hcan2
    stm32f4xx_it.o(i.CAN2_RX1_IRQHandler) refers to stm32f4xx_hal_can.o(i.HAL_CAN_IRQHandler) for HAL_CAN_IRQHandler
    stm32f4xx_it.o(i.CAN2_RX1_IRQHandler) refers to stm32f4xx_it.o(.data) for .data
    stm32f4xx_it.o(i.CAN2_RX1_IRQHandler) refers to can.o(.bss) for hcan2
    stm32f4xx_it.o(i.DMA1_Stream1_IRQHandler) refers to stm32f4xx_hal_dma.o(i.HAL_DMA_IRQHandler) for HAL_DMA_IRQHandler
    stm32f4xx_it.o(i.DMA1_Stream1_IRQHandler) refers to usart.o(.bss) for hdma_usart3_rx
    stm32f4xx_it.o(i.DMA1_Stream1_IRQHandler) refers to stm32f4xx_it.o(.data) for .data
    stm32f4xx_it.o(i.SysTick_Handler) refers to stm32f4xx_hal.o(i.HAL_IncTick) for HAL_IncTick
    stm32f4xx_it.o(i.SysTick_Handler) refers to tasks.o(i.xTaskGetSchedulerState) for xTaskGetSchedulerState
    stm32f4xx_it.o(i.SysTick_Handler) refers to port.o(i.xPortSysTickHandler) for xPortSysTickHandler
    stm32f4xx_it.o(i.TIM4_IRQHandler) refers to stm32f4xx_hal_tim.o(i.HAL_TIM_IRQHandler) for HAL_TIM_IRQHandler
    stm32f4xx_it.o(i.TIM4_IRQHandler) refers to tim.o(.bss) for htim4
    stm32f4xx_it.o(i.USART1_IRQHandler) refers to stm32f4xx_hal_uart.o(i.HAL_UART_IRQHandler) for HAL_UART_IRQHandler
    stm32f4xx_it.o(i.USART1_IRQHandler) refers to usart.o(.bss) for huart1
    stm32f4xx_it.o(i.USART2_IRQHandler) refers to stm32f4xx_hal_uart.o(i.HAL_UART_IRQHandler) for HAL_UART_IRQHandler
    stm32f4xx_it.o(i.USART2_IRQHandler) refers to usart.o(.bss) for huart2
    stm32f4xx_it.o(i.USART3_IRQHandler) refers to hwt101.o(i.USER_GYRO_IDLE_IRQHandler) for USER_GYRO_IDLE_IRQHandler
    stm32f4xx_it.o(i.USART3_IRQHandler) refers to stm32f4xx_hal_uart.o(i.HAL_UART_IRQHandler) for HAL_UART_IRQHandler
    stm32f4xx_it.o(i.USART3_IRQHandler) refers to usart.o(.bss) for huart3
    stm32f4xx_it.o(i.USART6_IRQHandler) refers to stm32f4xx_hal_uart.o(i.HAL_UART_IRQHandler) for HAL_UART_IRQHandler
    stm32f4xx_it.o(i.USART6_IRQHandler) refers to usart.o(.bss) for huart6
    stm32f4xx_hal_msp.o(i.HAL_CAN_MspDeInit) refers to stm32f4xx_hal_gpio.o(i.HAL_GPIO_DeInit) for HAL_GPIO_DeInit
    stm32f4xx_hal_msp.o(i.HAL_CAN_MspDeInit) refers to stm32f4xx_hal_cortex.o(i.HAL_NVIC_DisableIRQ) for HAL_NVIC_DisableIRQ
    stm32f4xx_hal_msp.o(i.HAL_CAN_MspInit) refers to stm32f4xx_hal_gpio.o(i.HAL_GPIO_Init) for HAL_GPIO_Init
    stm32f4xx_hal_msp.o(i.HAL_CAN_MspInit) refers to stm32f4xx_hal_cortex.o(i.HAL_NVIC_SetPriority) for HAL_NVIC_SetPriority
    stm32f4xx_hal_msp.o(i.HAL_CAN_MspInit) refers to stm32f4xx_hal_cortex.o(i.HAL_NVIC_EnableIRQ) for HAL_NVIC_EnableIRQ
    stm32f4xx_hal_msp.o(i.HAL_CAN_MspInit) refers to stm32f4xx_hal_msp.o(.data) for .data
    stm32f4xx_hal_msp.o(i.HAL_UART_MspDeInit) refers to stm32f4xx_hal_gpio.o(i.HAL_GPIO_DeInit) for HAL_GPIO_DeInit
    stm32f4xx_hal_msp.o(i.HAL_UART_MspDeInit) refers to stm32f4xx_hal_cortex.o(i.HAL_NVIC_DisableIRQ) for HAL_NVIC_DisableIRQ
    stm32f4xx_hal_msp.o(i.HAL_UART_MspInit) refers to stm32f4xx_hal_gpio.o(i.HAL_GPIO_Init) for HAL_GPIO_Init
    stm32f4xx_hal_msp.o(i.HAL_UART_MspInit) refers to stm32f4xx_hal_cortex.o(i.HAL_NVIC_SetPriority) for HAL_NVIC_SetPriority
    stm32f4xx_hal_msp.o(i.HAL_UART_MspInit) refers to stm32f4xx_hal_cortex.o(i.HAL_NVIC_EnableIRQ) for HAL_NVIC_EnableIRQ
    stm32f4xx_hal_msp.o(i.HAL_UART_MspInit) refers to stm32f4xx_hal_dma.o(i.HAL_DMA_Init) for HAL_DMA_Init
    stm32f4xx_hal_msp.o(i.HAL_UART_MspInit) refers to main.o(i.Error_Handler) for Error_Handler
    stm32f4xx_hal_msp.o(i.HAL_UART_MspInit) refers to usart.o(.bss) for hdma_usart3_rx
    freertos.o(i.Add_Task) refers to add.o(i.sup_add_task) for sup_add_task
    freertos.o(i.Add_Task) refers to cmsis_os.o(i.osDelay) for osDelay
    freertos.o(i.Auto_Task) refers to cmsis_os.o(i.osKernelSysTick) for osKernelSysTick
    freertos.o(i.Auto_Task) refers to auto.o(i.Auto_control_task) for Auto_control_task
    freertos.o(i.Auto_Task) refers to cmsis_os.o(i.osDelay) for osDelay
    freertos.o(i.Chassic_Task) refers to cmsis_os.o(i.osKernelSysTick) for osKernelSysTick
    freertos.o(i.Chassic_Task) refers to chassis.o(i.Control_Task) for Control_Task
    freertos.o(i.Chassic_Task) refers to cmsis_os.o(i.osDelay) for osDelay
    freertos.o(i.FMS2_Task) refers to cmsis_os.o(i.osDelay) for osDelay
    freertos.o(i.Key_scan) refers to cmsis_os.o(i.osDelay) for osDelay
    freertos.o(i.MX_FREERTOS_Init) refers to cmsis_os.o(i.osThreadCreate) for osThreadCreate
    freertos.o(i.MX_FREERTOS_Init) refers to freertos.o(.constdata) for .constdata
    freertos.o(i.MX_FREERTOS_Init) refers to freertos.o(.data) for .data
    freertos.o(i.Mode_Task) refers to mode_choic.o(i.mode_judge) for mode_judge
    freertos.o(i.Mode_Task) refers to cmsis_os.o(i.osDelay) for osDelay
    freertos.o(i.Mode_Task) refers to freertos.o(.data) for .data
    freertos.o(i.Protect_Task) refers to cmsis_os.o(i.osDelay) for osDelay
    freertos.o(i.Superstratum_Task) refers to superstratum.o(i.control_sup_task) for control_sup_task
    freertos.o(i.Superstratum_Task) refers to cmsis_os.o(i.osDelay) for osDelay
    freertos.o(i.vApplicationGetIdleTaskMemory) refers to freertos.o(.bss) for .bss
    freertos.o(.constdata) refers to freertos.o(.conststring) for .conststring
    freertos.o(.constdata) refers to freertos.o(i.Protect_Task) for Protect_Task
    freertos.o(.constdata) refers to freertos.o(i.Chassic_Task) for Chassic_Task
    freertos.o(.constdata) refers to freertos.o(i.Superstratum_Task) for Superstratum_Task
    freertos.o(.constdata) refers to freertos.o(i.Mode_Task) for Mode_Task
    freertos.o(.constdata) refers to freertos.o(i.Auto_Task) for Auto_Task
    freertos.o(.constdata) refers to freertos.o(i.Add_Task) for Add_Task
    tim.o(i.HAL_TIM_Base_MspDeInit) refers to stm32f4xx_hal_cortex.o(i.HAL_NVIC_DisableIRQ) for HAL_NVIC_DisableIRQ
    tim.o(i.HAL_TIM_Base_MspInit) refers to stm32f4xx_hal_cortex.o(i.HAL_NVIC_SetPriority) for HAL_NVIC_SetPriority
    tim.o(i.HAL_TIM_Base_MspInit) refers to stm32f4xx_hal_cortex.o(i.HAL_NVIC_EnableIRQ) for HAL_NVIC_EnableIRQ
    tim.o(i.HAL_TIM_PeriodElapsedCallback) refers to f2d.o(.text) for __aeabi_f2d
    tim.o(i.HAL_TIM_PeriodElapsedCallback) refers to dadd.o(.text) for __aeabi_dadd
    tim.o(i.HAL_TIM_PeriodElapsedCallback) refers to d2f.o(.text) for __aeabi_d2f
    tim.o(i.HAL_TIM_PeriodElapsedCallback) refers to tim.o(.data) for .data
    tim.o(i.MX_TIM4_Init) refers to stm32f4xx_hal_tim.o(i.HAL_TIM_Base_Init) for HAL_TIM_Base_Init
    tim.o(i.MX_TIM4_Init) refers to main.o(i.Error_Handler) for Error_Handler
    tim.o(i.MX_TIM4_Init) refers to stm32f4xx_hal_tim_ex.o(i.HAL_TIMEx_MasterConfigSynchronization) for HAL_TIMEx_MasterConfigSynchronization
    tim.o(i.MX_TIM4_Init) refers to tim.o(.bss) for .bss
    stm32f4xx_hal_can.o(i.HAL_CAN_AddTxMessage) refers to stm32f4xx_hal_can.o(.data) for .data
    stm32f4xx_hal_can.o(i.HAL_CAN_AddTxMessage) refers to stm32f4xx_hal_can.o(.bss) for .bss
    stm32f4xx_hal_can.o(i.HAL_CAN_DeInit) refers to stm32f4xx_hal_msp.o(i.HAL_CAN_MspDeInit) for HAL_CAN_MspDeInit
    stm32f4xx_hal_can.o(i.HAL_CAN_DeInit) refers to stm32f4xx_hal.o(i.HAL_GetTick) for HAL_GetTick
    stm32f4xx_hal_can.o(i.HAL_CAN_IRQHandler) refers to stm32f4xx_hal_can.o(i.HAL_CAN_TxMailbox0CompleteCallback) for HAL_CAN_TxMailbox0CompleteCallback
    stm32f4xx_hal_can.o(i.HAL_CAN_IRQHandler) refers to stm32f4xx_hal_can.o(i.HAL_CAN_TxMailbox1CompleteCallback) for HAL_CAN_TxMailbox1CompleteCallback
    stm32f4xx_hal_can.o(i.HAL_CAN_IRQHandler) refers to stm32f4xx_hal_can.o(i.HAL_CAN_TxMailbox2CompleteCallback) for HAL_CAN_TxMailbox2CompleteCallback
    stm32f4xx_hal_can.o(i.HAL_CAN_IRQHandler) refers to stm32f4xx_hal_can.o(i.HAL_CAN_RxFifo0FullCallback) for HAL_CAN_RxFifo0FullCallback
    stm32f4xx_hal_can.o(i.HAL_CAN_IRQHandler) refers to can_receive.o(i.HAL_CAN_RxFifo0MsgPendingCallback) for HAL_CAN_RxFifo0MsgPendingCallback
    stm32f4xx_hal_can.o(i.HAL_CAN_IRQHandler) refers to stm32f4xx_hal_can.o(i.HAL_CAN_RxFifo1FullCallback) for HAL_CAN_RxFifo1FullCallback
    stm32f4xx_hal_can.o(i.HAL_CAN_IRQHandler) refers to stm32f4xx_hal_can.o(i.HAL_CAN_RxFifo1MsgPendingCallback) for HAL_CAN_RxFifo1MsgPendingCallback
    stm32f4xx_hal_can.o(i.HAL_CAN_IRQHandler) refers to stm32f4xx_hal_can.o(i.HAL_CAN_SleepCallback) for HAL_CAN_SleepCallback
    stm32f4xx_hal_can.o(i.HAL_CAN_IRQHandler) refers to stm32f4xx_hal_can.o(i.HAL_CAN_WakeUpFromRxMsgCallback) for HAL_CAN_WakeUpFromRxMsgCallback
    stm32f4xx_hal_can.o(i.HAL_CAN_IRQHandler) refers to stm32f4xx_hal_can.o(i.HAL_CAN_TxMailbox0AbortCallback) for HAL_CAN_TxMailbox0AbortCallback
    stm32f4xx_hal_can.o(i.HAL_CAN_IRQHandler) refers to stm32f4xx_hal_can.o(i.HAL_CAN_TxMailbox1AbortCallback) for HAL_CAN_TxMailbox1AbortCallback
    stm32f4xx_hal_can.o(i.HAL_CAN_IRQHandler) refers to stm32f4xx_hal_can.o(i.HAL_CAN_TxMailbox2AbortCallback) for HAL_CAN_TxMailbox2AbortCallback
    stm32f4xx_hal_can.o(i.HAL_CAN_IRQHandler) refers to stm32f4xx_hal_can.o(i.HAL_CAN_ErrorCallback) for HAL_CAN_ErrorCallback
    stm32f4xx_hal_can.o(i.HAL_CAN_Init) refers to stm32f4xx_hal_msp.o(i.HAL_CAN_MspInit) for HAL_CAN_MspInit
    stm32f4xx_hal_can.o(i.HAL_CAN_Init) refers to stm32f4xx_hal.o(i.HAL_GetTick) for HAL_GetTick
    stm32f4xx_hal_can.o(i.HAL_CAN_Start) refers to stm32f4xx_hal.o(i.HAL_GetTick) for HAL_GetTick
    stm32f4xx_hal_can.o(i.HAL_CAN_Stop) refers to stm32f4xx_hal.o(i.HAL_GetTick) for HAL_GetTick
    stm32f4xx_hal_rcc.o(i.HAL_RCC_ClockConfig) refers to stm32f4xx_hal.o(i.HAL_GetTick) for HAL_GetTick
    stm32f4xx_hal_rcc.o(i.HAL_RCC_ClockConfig) refers to stm32f4xx_hal_rcc.o(i.HAL_RCC_GetSysClockFreq) for HAL_RCC_GetSysClockFreq
    stm32f4xx_hal_rcc.o(i.HAL_RCC_ClockConfig) refers to stm32f4xx_hal.o(i.HAL_InitTick) for HAL_InitTick
    stm32f4xx_hal_rcc.o(i.HAL_RCC_ClockConfig) refers to system_stm32f4xx.o(.constdata) for AHBPrescTable
    stm32f4xx_hal_rcc.o(i.HAL_RCC_ClockConfig) refers to system_stm32f4xx.o(.data) for SystemCoreClock
    stm32f4xx_hal_rcc.o(i.HAL_RCC_ClockConfig) refers to stm32f4xx_hal.o(.data) for uwTickPrio
    stm32f4xx_hal_rcc.o(i.HAL_RCC_GetHCLKFreq) refers to system_stm32f4xx.o(.data) for SystemCoreClock
    stm32f4xx_hal_rcc.o(i.HAL_RCC_GetPCLK1Freq) refers to system_stm32f4xx.o(.data) for SystemCoreClock
    stm32f4xx_hal_rcc.o(i.HAL_RCC_GetPCLK1Freq) refers to system_stm32f4xx.o(.constdata) for APBPrescTable
    stm32f4xx_hal_rcc.o(i.HAL_RCC_GetPCLK2Freq) refers to system_stm32f4xx.o(.data) for SystemCoreClock
    stm32f4xx_hal_rcc.o(i.HAL_RCC_GetPCLK2Freq) refers to system_stm32f4xx.o(.constdata) for APBPrescTable
    stm32f4xx_hal_rcc.o(i.HAL_RCC_GetSysClockFreq) refers to uldiv.o(.text) for __aeabi_uldivmod
    stm32f4xx_hal_rcc.o(i.HAL_RCC_MCOConfig) refers to stm32f4xx_hal_gpio.o(i.HAL_GPIO_Init) for HAL_GPIO_Init
    stm32f4xx_hal_rcc.o(i.HAL_RCC_NMI_IRQHandler) refers to stm32f4xx_hal_rcc.o(i.HAL_RCC_CSSCallback) for HAL_RCC_CSSCallback
    stm32f4xx_hal_rcc.o(i.HAL_RCC_OscConfig) refers to stm32f4xx_hal.o(i.HAL_GetTick) for HAL_GetTick
    stm32f4xx_hal_rcc_ex.o(i.HAL_RCCEx_DisablePLLI2S) refers to stm32f4xx_hal.o(i.HAL_GetTick) for HAL_GetTick
    stm32f4xx_hal_rcc_ex.o(i.HAL_RCCEx_DisablePLLSAI) refers to stm32f4xx_hal.o(i.HAL_GetTick) for HAL_GetTick
    stm32f4xx_hal_rcc_ex.o(i.HAL_RCCEx_EnablePLLI2S) refers to stm32f4xx_hal.o(i.HAL_GetTick) for HAL_GetTick
    stm32f4xx_hal_rcc_ex.o(i.HAL_RCCEx_EnablePLLSAI) refers to stm32f4xx_hal.o(i.HAL_GetTick) for HAL_GetTick
    stm32f4xx_hal_rcc_ex.o(i.HAL_RCCEx_PeriphCLKConfig) refers to stm32f4xx_hal.o(i.HAL_GetTick) for HAL_GetTick
    stm32f4xx_hal_rcc_ex.o(i.HAL_RCC_DeInit) refers to stm32f4xx_hal.o(i.HAL_GetTick) for HAL_GetTick
    stm32f4xx_hal_rcc_ex.o(i.HAL_RCC_DeInit) refers to stm32f4xx_hal.o(i.HAL_InitTick) for HAL_InitTick
    stm32f4xx_hal_rcc_ex.o(i.HAL_RCC_DeInit) refers to system_stm32f4xx.o(.data) for SystemCoreClock
    stm32f4xx_hal_rcc_ex.o(i.HAL_RCC_DeInit) refers to stm32f4xx_hal.o(.data) for uwTickPrio
    stm32f4xx_hal_flash.o(i.FLASH_SetErrorCode) refers to stm32f4xx_hal_flash.o(.bss) for .bss
    stm32f4xx_hal_flash.o(i.FLASH_WaitForLastOperation) refers to stm32f4xx_hal.o(i.HAL_GetTick) for HAL_GetTick
    stm32f4xx_hal_flash.o(i.FLASH_WaitForLastOperation) refers to stm32f4xx_hal_flash.o(i.FLASH_SetErrorCode) for FLASH_SetErrorCode
    stm32f4xx_hal_flash.o(i.FLASH_WaitForLastOperation) refers to stm32f4xx_hal_flash.o(.bss) for .bss
    stm32f4xx_hal_flash.o(i.HAL_FLASH_GetError) refers to stm32f4xx_hal_flash.o(.bss) for .bss
    stm32f4xx_hal_flash.o(i.HAL_FLASH_IRQHandler) refers to stm32f4xx_hal_flash.o(i.FLASH_SetErrorCode) for FLASH_SetErrorCode
    stm32f4xx_hal_flash.o(i.HAL_FLASH_IRQHandler) refers to stm32f4xx_hal_flash.o(i.HAL_FLASH_OperationErrorCallback) for HAL_FLASH_OperationErrorCallback
    stm32f4xx_hal_flash.o(i.HAL_FLASH_IRQHandler) refers to stm32f4xx_hal_flash.o(i.HAL_FLASH_EndOfOperationCallback) for HAL_FLASH_EndOfOperationCallback
    stm32f4xx_hal_flash.o(i.HAL_FLASH_IRQHandler) refers to stm32f4xx_hal_flash_ex.o(i.FLASH_Erase_Sector) for FLASH_Erase_Sector
    stm32f4xx_hal_flash.o(i.HAL_FLASH_IRQHandler) refers to stm32f4xx_hal_flash_ex.o(i.FLASH_FlushCaches) for FLASH_FlushCaches
    stm32f4xx_hal_flash.o(i.HAL_FLASH_IRQHandler) refers to stm32f4xx_hal_flash.o(.bss) for .bss
    stm32f4xx_hal_flash.o(i.HAL_FLASH_OB_Launch) refers to stm32f4xx_hal_flash.o(i.FLASH_WaitForLastOperation) for FLASH_WaitForLastOperation
    stm32f4xx_hal_flash.o(i.HAL_FLASH_Program) refers to stm32f4xx_hal_flash.o(i.FLASH_WaitForLastOperation) for FLASH_WaitForLastOperation
    stm32f4xx_hal_flash.o(i.HAL_FLASH_Program) refers to stm32f4xx_hal_flash.o(.bss) for .bss
    stm32f4xx_hal_flash.o(i.HAL_FLASH_Program_IT) refers to stm32f4xx_hal_flash.o(.bss) for .bss
    stm32f4xx_hal_flash_ex.o(i.HAL_FLASHEx_AdvOBProgram) refers to stm32f4xx_hal_flash.o(i.FLASH_WaitForLastOperation) for FLASH_WaitForLastOperation
    stm32f4xx_hal_flash_ex.o(i.HAL_FLASHEx_Erase) refers to stm32f4xx_hal_flash.o(i.FLASH_WaitForLastOperation) for FLASH_WaitForLastOperation
    stm32f4xx_hal_flash_ex.o(i.HAL_FLASHEx_Erase) refers to stm32f4xx_hal_flash.o(.bss) for pFlash
    stm32f4xx_hal_flash_ex.o(i.HAL_FLASHEx_Erase_IT) refers to stm32f4xx_hal_flash.o(.bss) for pFlash
    stm32f4xx_hal_flash_ex.o(i.HAL_FLASHEx_OBProgram) refers to stm32f4xx_hal_flash.o(i.FLASH_WaitForLastOperation) for FLASH_WaitForLastOperation
    stm32f4xx_hal_flash_ex.o(i.HAL_FLASHEx_OBProgram) refers to stm32f4xx_hal_flash.o(.bss) for pFlash
    stm32f4xx_hal_gpio.o(i.HAL_GPIO_EXTI_IRQHandler) refers to stm32f4xx_hal_gpio.o(i.HAL_GPIO_EXTI_Callback) for HAL_GPIO_EXTI_Callback
    stm32f4xx_hal_dma.o(i.HAL_DMA_Abort) refers to stm32f4xx_hal.o(i.HAL_GetTick) for HAL_GetTick
    stm32f4xx_hal_dma.o(i.HAL_DMA_DeInit) refers to stm32f4xx_hal_dma.o(.constdata) for .constdata
    stm32f4xx_hal_dma.o(i.HAL_DMA_IRQHandler) refers to system_stm32f4xx.o(.data) for SystemCoreClock
    stm32f4xx_hal_dma.o(i.HAL_DMA_Init) refers to stm32f4xx_hal.o(i.HAL_GetTick) for HAL_GetTick
    stm32f4xx_hal_dma.o(i.HAL_DMA_Init) refers to stm32f4xx_hal_dma.o(.constdata) for .constdata
    stm32f4xx_hal_dma.o(i.HAL_DMA_PollForTransfer) refers to stm32f4xx_hal.o(i.HAL_GetTick) for HAL_GetTick
    stm32f4xx_hal_pwr.o(i.HAL_PWR_PVD_IRQHandler) refers to stm32f4xx_hal_pwr.o(i.HAL_PWR_PVDCallback) for HAL_PWR_PVDCallback
    stm32f4xx_hal_pwr_ex.o(i.HAL_PWREx_ControlVoltageScaling) refers to stm32f4xx_hal.o(i.HAL_GetTick) for HAL_GetTick
    stm32f4xx_hal_pwr_ex.o(i.HAL_PWREx_DisableBkUpReg) refers to stm32f4xx_hal.o(i.HAL_GetTick) for HAL_GetTick
    stm32f4xx_hal_pwr_ex.o(i.HAL_PWREx_DisableOverDrive) refers to stm32f4xx_hal.o(i.HAL_GetTick) for HAL_GetTick
    stm32f4xx_hal_pwr_ex.o(i.HAL_PWREx_EnableBkUpReg) refers to stm32f4xx_hal.o(i.HAL_GetTick) for HAL_GetTick
    stm32f4xx_hal_pwr_ex.o(i.HAL_PWREx_EnableOverDrive) refers to stm32f4xx_hal.o(i.HAL_GetTick) for HAL_GetTick
    stm32f4xx_hal_cortex.o(i.HAL_SYSTICK_IRQHandler) refers to stm32f4xx_hal_cortex.o(i.HAL_SYSTICK_Callback) for HAL_SYSTICK_Callback
    stm32f4xx_hal.o(i.HAL_DeInit) refers to stm32f4xx_hal.o(i.HAL_MspDeInit) for HAL_MspDeInit
    stm32f4xx_hal.o(i.HAL_Delay) refers to stm32f4xx_hal.o(i.HAL_GetTick) for HAL_GetTick
    stm32f4xx_hal.o(i.HAL_Delay) refers to stm32f4xx_hal.o(.data) for .data
    stm32f4xx_hal.o(i.HAL_GetTick) refers to stm32f4xx_hal.o(.data) for .data
    stm32f4xx_hal.o(i.HAL_GetTickFreq) refers to stm32f4xx_hal.o(.data) for .data
    stm32f4xx_hal.o(i.HAL_GetTickPrio) refers to stm32f4xx_hal.o(.data) for .data
    stm32f4xx_hal.o(i.HAL_IncTick) refers to stm32f4xx_hal.o(.data) for .data
    stm32f4xx_hal.o(i.HAL_Init) refers to stm32f4xx_hal_cortex.o(i.HAL_NVIC_SetPriorityGrouping) for HAL_NVIC_SetPriorityGrouping
    stm32f4xx_hal.o(i.HAL_Init) refers to stm32f4xx_hal.o(i.HAL_InitTick) for HAL_InitTick
    stm32f4xx_hal.o(i.HAL_Init) refers to stm32f4xx_hal_msp.o(i.HAL_MspInit) for HAL_MspInit
    stm32f4xx_hal.o(i.HAL_InitTick) refers to stm32f4xx_hal_cortex.o(i.HAL_SYSTICK_Config) for HAL_SYSTICK_Config
    stm32f4xx_hal.o(i.HAL_InitTick) refers to stm32f4xx_hal_cortex.o(i.HAL_NVIC_SetPriority) for HAL_NVIC_SetPriority
    stm32f4xx_hal.o(i.HAL_InitTick) refers to stm32f4xx_hal.o(.data) for .data
    stm32f4xx_hal.o(i.HAL_InitTick) refers to system_stm32f4xx.o(.data) for SystemCoreClock
    stm32f4xx_hal.o(i.HAL_SetTickFreq) refers to stm32f4xx_hal.o(i.HAL_InitTick) for HAL_InitTick
    stm32f4xx_hal.o(i.HAL_SetTickFreq) refers to stm32f4xx_hal.o(.data) for .data
    stm32f4xx_hal_tim.o(i.HAL_TIM_Base_DeInit) refers to tim.o(i.HAL_TIM_Base_MspDeInit) for HAL_TIM_Base_MspDeInit
    stm32f4xx_hal_tim.o(i.HAL_TIM_Base_Init) refers to tim.o(i.HAL_TIM_Base_MspInit) for HAL_TIM_Base_MspInit
    stm32f4xx_hal_tim.o(i.HAL_TIM_Base_Init) refers to stm32f4xx_hal_tim.o(i.TIM_Base_SetConfig) for TIM_Base_SetConfig
    stm32f4xx_hal_tim.o(i.HAL_TIM_Base_Start_DMA) refers to stm32f4xx_hal_dma.o(i.HAL_DMA_Start_IT) for HAL_DMA_Start_IT
    stm32f4xx_hal_tim.o(i.HAL_TIM_Base_Start_DMA) refers to stm32f4xx_hal_tim.o(i.TIM_DMAPeriodElapsedCplt) for TIM_DMAPeriodElapsedCplt
    stm32f4xx_hal_tim.o(i.HAL_TIM_Base_Start_DMA) refers to stm32f4xx_hal_tim.o(i.TIM_DMAPeriodElapsedHalfCplt) for TIM_DMAPeriodElapsedHalfCplt
    stm32f4xx_hal_tim.o(i.HAL_TIM_Base_Start_DMA) refers to stm32f4xx_hal_tim.o(i.TIM_DMAError) for TIM_DMAError
    stm32f4xx_hal_tim.o(i.HAL_TIM_Base_Stop_DMA) refers to stm32f4xx_hal_dma.o(i.HAL_DMA_Abort_IT) for HAL_DMA_Abort_IT
    stm32f4xx_hal_tim.o(i.HAL_TIM_DMABurst_ReadStart) refers to stm32f4xx_hal_dma.o(i.HAL_DMA_Start_IT) for HAL_DMA_Start_IT
    stm32f4xx_hal_tim.o(i.HAL_TIM_DMABurst_ReadStart) refers to stm32f4xx_hal_tim.o(i.TIM_DMAError) for TIM_DMAError
    stm32f4xx_hal_tim.o(i.HAL_TIM_DMABurst_ReadStart) refers to stm32f4xx_hal_tim.o(i.TIM_DMACaptureCplt) for TIM_DMACaptureCplt
    stm32f4xx_hal_tim.o(i.HAL_TIM_DMABurst_ReadStart) refers to stm32f4xx_hal_tim.o(i.TIM_DMACaptureHalfCplt) for TIM_DMACaptureHalfCplt
    stm32f4xx_hal_tim.o(i.HAL_TIM_DMABurst_ReadStart) refers to stm32f4xx_hal_tim.o(i.TIM_DMAPeriodElapsedCplt) for TIM_DMAPeriodElapsedCplt
    stm32f4xx_hal_tim.o(i.HAL_TIM_DMABurst_ReadStart) refers to stm32f4xx_hal_tim.o(i.TIM_DMAPeriodElapsedHalfCplt) for TIM_DMAPeriodElapsedHalfCplt
    stm32f4xx_hal_tim.o(i.HAL_TIM_DMABurst_ReadStart) refers to stm32f4xx_hal_tim_ex.o(i.TIMEx_DMACommutationCplt) for TIMEx_DMACommutationCplt
    stm32f4xx_hal_tim.o(i.HAL_TIM_DMABurst_ReadStart) refers to stm32f4xx_hal_tim_ex.o(i.TIMEx_DMACommutationHalfCplt) for TIMEx_DMACommutationHalfCplt
    stm32f4xx_hal_tim.o(i.HAL_TIM_DMABurst_ReadStart) refers to stm32f4xx_hal_tim.o(i.TIM_DMATriggerCplt) for TIM_DMATriggerCplt
    stm32f4xx_hal_tim.o(i.HAL_TIM_DMABurst_ReadStart) refers to stm32f4xx_hal_tim.o(i.TIM_DMATriggerHalfCplt) for TIM_DMATriggerHalfCplt
    stm32f4xx_hal_tim.o(i.HAL_TIM_DMABurst_ReadStop) refers to stm32f4xx_hal_dma.o(i.HAL_DMA_Abort_IT) for HAL_DMA_Abort_IT
    stm32f4xx_hal_tim.o(i.HAL_TIM_DMABurst_WriteStart) refers to stm32f4xx_hal_dma.o(i.HAL_DMA_Start_IT) for HAL_DMA_Start_IT
    stm32f4xx_hal_tim.o(i.HAL_TIM_DMABurst_WriteStart) refers to stm32f4xx_hal_tim.o(i.TIM_DMAError) for TIM_DMAError
    stm32f4xx_hal_tim.o(i.HAL_TIM_DMABurst_WriteStart) refers to stm32f4xx_hal_tim.o(i.TIM_DMADelayPulseCplt) for TIM_DMADelayPulseCplt
    stm32f4xx_hal_tim.o(i.HAL_TIM_DMABurst_WriteStart) refers to stm32f4xx_hal_tim.o(i.TIM_DMADelayPulseHalfCplt) for TIM_DMADelayPulseHalfCplt
    stm32f4xx_hal_tim.o(i.HAL_TIM_DMABurst_WriteStart) refers to stm32f4xx_hal_tim.o(i.TIM_DMAPeriodElapsedCplt) for TIM_DMAPeriodElapsedCplt
    stm32f4xx_hal_tim.o(i.HAL_TIM_DMABurst_WriteStart) refers to stm32f4xx_hal_tim.o(i.TIM_DMAPeriodElapsedHalfCplt) for TIM_DMAPeriodElapsedHalfCplt
    stm32f4xx_hal_tim.o(i.HAL_TIM_DMABurst_WriteStart) refers to stm32f4xx_hal_tim_ex.o(i.TIMEx_DMACommutationCplt) for TIMEx_DMACommutationCplt
    stm32f4xx_hal_tim.o(i.HAL_TIM_DMABurst_WriteStart) refers to stm32f4xx_hal_tim_ex.o(i.TIMEx_DMACommutationHalfCplt) for TIMEx_DMACommutationHalfCplt
    stm32f4xx_hal_tim.o(i.HAL_TIM_DMABurst_WriteStart) refers to stm32f4xx_hal_tim.o(i.TIM_DMATriggerCplt) for TIM_DMATriggerCplt
    stm32f4xx_hal_tim.o(i.HAL_TIM_DMABurst_WriteStart) refers to stm32f4xx_hal_tim.o(i.TIM_DMATriggerHalfCplt) for TIM_DMATriggerHalfCplt
    stm32f4xx_hal_tim.o(i.HAL_TIM_DMABurst_WriteStop) refers to stm32f4xx_hal_dma.o(i.HAL_DMA_Abort_IT) for HAL_DMA_Abort_IT
    stm32f4xx_hal_tim.o(i.HAL_TIM_Encoder_DeInit) refers to stm32f4xx_hal_tim.o(i.HAL_TIM_Encoder_MspDeInit) for HAL_TIM_Encoder_MspDeInit
    stm32f4xx_hal_tim.o(i.HAL_TIM_Encoder_Init) refers to stm32f4xx_hal_tim.o(i.HAL_TIM_Encoder_MspInit) for HAL_TIM_Encoder_MspInit
    stm32f4xx_hal_tim.o(i.HAL_TIM_Encoder_Init) refers to stm32f4xx_hal_tim.o(i.TIM_Base_SetConfig) for TIM_Base_SetConfig
    stm32f4xx_hal_tim.o(i.HAL_TIM_Encoder_Start_DMA) refers to stm32f4xx_hal_dma.o(i.HAL_DMA_Start_IT) for HAL_DMA_Start_IT
    stm32f4xx_hal_tim.o(i.HAL_TIM_Encoder_Start_DMA) refers to stm32f4xx_hal_tim.o(i.TIM_DMACaptureCplt) for TIM_DMACaptureCplt
    stm32f4xx_hal_tim.o(i.HAL_TIM_Encoder_Start_DMA) refers to stm32f4xx_hal_tim.o(i.TIM_DMACaptureHalfCplt) for TIM_DMACaptureHalfCplt
    stm32f4xx_hal_tim.o(i.HAL_TIM_Encoder_Start_DMA) refers to stm32f4xx_hal_tim.o(i.TIM_DMAError) for TIM_DMAError
    stm32f4xx_hal_tim.o(i.HAL_TIM_Encoder_Stop_DMA) refers to stm32f4xx_hal_dma.o(i.HAL_DMA_Abort_IT) for HAL_DMA_Abort_IT
    stm32f4xx_hal_tim.o(i.HAL_TIM_IC_DeInit) refers to stm32f4xx_hal_tim.o(i.HAL_TIM_IC_MspDeInit) for HAL_TIM_IC_MspDeInit
    stm32f4xx_hal_tim.o(i.HAL_TIM_IC_Init) refers to stm32f4xx_hal_tim.o(i.HAL_TIM_IC_MspInit) for HAL_TIM_IC_MspInit
    stm32f4xx_hal_tim.o(i.HAL_TIM_IC_Init) refers to stm32f4xx_hal_tim.o(i.TIM_Base_SetConfig) for TIM_Base_SetConfig
    stm32f4xx_hal_tim.o(i.HAL_TIM_IC_Start_DMA) refers to stm32f4xx_hal_dma.o(i.HAL_DMA_Start_IT) for HAL_DMA_Start_IT
    stm32f4xx_hal_tim.o(i.HAL_TIM_IC_Start_DMA) refers to stm32f4xx_hal_tim.o(i.TIM_DMACaptureCplt) for TIM_DMACaptureCplt
    stm32f4xx_hal_tim.o(i.HAL_TIM_IC_Start_DMA) refers to stm32f4xx_hal_tim.o(i.TIM_DMACaptureHalfCplt) for TIM_DMACaptureHalfCplt
    stm32f4xx_hal_tim.o(i.HAL_TIM_IC_Start_DMA) refers to stm32f4xx_hal_tim.o(i.TIM_DMAError) for TIM_DMAError
    stm32f4xx_hal_tim.o(i.HAL_TIM_IC_Stop_DMA) refers to stm32f4xx_hal_dma.o(i.HAL_DMA_Abort_IT) for HAL_DMA_Abort_IT
    stm32f4xx_hal_tim.o(i.HAL_TIM_IRQHandler) refers to stm32f4xx_hal_tim.o(i.HAL_TIM_IC_CaptureCallback) for HAL_TIM_IC_CaptureCallback
    stm32f4xx_hal_tim.o(i.HAL_TIM_IRQHandler) refers to stm32f4xx_hal_tim.o(i.HAL_TIM_OC_DelayElapsedCallback) for HAL_TIM_OC_DelayElapsedCallback
    stm32f4xx_hal_tim.o(i.HAL_TIM_IRQHandler) refers to stm32f4xx_hal_tim.o(i.HAL_TIM_PWM_PulseFinishedCallback) for HAL_TIM_PWM_PulseFinishedCallback
    stm32f4xx_hal_tim.o(i.HAL_TIM_IRQHandler) refers to tim.o(i.HAL_TIM_PeriodElapsedCallback) for HAL_TIM_PeriodElapsedCallback
    stm32f4xx_hal_tim.o(i.HAL_TIM_IRQHandler) refers to stm32f4xx_hal_tim_ex.o(i.HAL_TIMEx_BreakCallback) for HAL_TIMEx_BreakCallback
    stm32f4xx_hal_tim.o(i.HAL_TIM_IRQHandler) refers to stm32f4xx_hal_tim.o(i.HAL_TIM_TriggerCallback) for HAL_TIM_TriggerCallback
    stm32f4xx_hal_tim.o(i.HAL_TIM_IRQHandler) refers to stm32f4xx_hal_tim_ex.o(i.HAL_TIMEx_CommutCallback) for HAL_TIMEx_CommutCallback
    stm32f4xx_hal_tim.o(i.HAL_TIM_OC_DeInit) refers to stm32f4xx_hal_tim.o(i.HAL_TIM_OC_MspDeInit) for HAL_TIM_OC_MspDeInit
    stm32f4xx_hal_tim.o(i.HAL_TIM_OC_Init) refers to stm32f4xx_hal_tim.o(i.HAL_TIM_OC_MspInit) for HAL_TIM_OC_MspInit
    stm32f4xx_hal_tim.o(i.HAL_TIM_OC_Init) refers to stm32f4xx_hal_tim.o(i.TIM_Base_SetConfig) for TIM_Base_SetConfig
    stm32f4xx_hal_tim.o(i.HAL_TIM_OC_Start_DMA) refers to stm32f4xx_hal_dma.o(i.HAL_DMA_Start_IT) for HAL_DMA_Start_IT
    stm32f4xx_hal_tim.o(i.HAL_TIM_OC_Start_DMA) refers to stm32f4xx_hal_tim.o(i.TIM_DMADelayPulseCplt) for TIM_DMADelayPulseCplt
    stm32f4xx_hal_tim.o(i.HAL_TIM_OC_Start_DMA) refers to stm32f4xx_hal_tim.o(i.TIM_DMADelayPulseHalfCplt) for TIM_DMADelayPulseHalfCplt
    stm32f4xx_hal_tim.o(i.HAL_TIM_OC_Start_DMA) refers to stm32f4xx_hal_tim.o(i.TIM_DMAError) for TIM_DMAError
    stm32f4xx_hal_tim.o(i.HAL_TIM_OC_Stop_DMA) refers to stm32f4xx_hal_dma.o(i.HAL_DMA_Abort_IT) for HAL_DMA_Abort_IT
    stm32f4xx_hal_tim.o(i.HAL_TIM_OnePulse_DeInit) refers to stm32f4xx_hal_tim.o(i.HAL_TIM_OnePulse_MspDeInit) for HAL_TIM_OnePulse_MspDeInit
    stm32f4xx_hal_tim.o(i.HAL_TIM_OnePulse_Init) refers to stm32f4xx_hal_tim.o(i.HAL_TIM_OnePulse_MspInit) for HAL_TIM_OnePulse_MspInit
    stm32f4xx_hal_tim.o(i.HAL_TIM_OnePulse_Init) refers to stm32f4xx_hal_tim.o(i.TIM_Base_SetConfig) for TIM_Base_SetConfig
    stm32f4xx_hal_tim.o(i.HAL_TIM_PWM_DeInit) refers to stm32f4xx_hal_tim.o(i.HAL_TIM_PWM_MspDeInit) for HAL_TIM_PWM_MspDeInit
    stm32f4xx_hal_tim.o(i.HAL_TIM_PWM_Init) refers to stm32f4xx_hal_tim.o(i.HAL_TIM_PWM_MspInit) for HAL_TIM_PWM_MspInit
    stm32f4xx_hal_tim.o(i.HAL_TIM_PWM_Init) refers to stm32f4xx_hal_tim.o(i.TIM_Base_SetConfig) for TIM_Base_SetConfig
    stm32f4xx_hal_tim.o(i.HAL_TIM_PWM_Start_DMA) refers to stm32f4xx_hal_dma.o(i.HAL_DMA_Start_IT) for HAL_DMA_Start_IT
    stm32f4xx_hal_tim.o(i.HAL_TIM_PWM_Start_DMA) refers to stm32f4xx_hal_tim.o(i.TIM_DMADelayPulseCplt) for TIM_DMADelayPulseCplt
    stm32f4xx_hal_tim.o(i.HAL_TIM_PWM_Start_DMA) refers to stm32f4xx_hal_tim.o(i.TIM_DMADelayPulseHalfCplt) for TIM_DMADelayPulseHalfCplt
    stm32f4xx_hal_tim.o(i.HAL_TIM_PWM_Start_DMA) refers to stm32f4xx_hal_tim.o(i.TIM_DMAError) for TIM_DMAError
    stm32f4xx_hal_tim.o(i.HAL_TIM_PWM_Stop_DMA) refers to stm32f4xx_hal_dma.o(i.HAL_DMA_Abort_IT) for HAL_DMA_Abort_IT
    stm32f4xx_hal_tim.o(i.HAL_TIM_SlaveConfigSynchro) refers to stm32f4xx_hal_tim.o(i.TIM_SlaveTimer_SetConfig) for TIM_SlaveTimer_SetConfig
    stm32f4xx_hal_tim.o(i.HAL_TIM_SlaveConfigSynchro_IT) refers to stm32f4xx_hal_tim.o(i.TIM_SlaveTimer_SetConfig) for TIM_SlaveTimer_SetConfig
    stm32f4xx_hal_tim.o(i.TIM_DMACaptureCplt) refers to stm32f4xx_hal_tim.o(i.HAL_TIM_IC_CaptureCallback) for HAL_TIM_IC_CaptureCallback
    stm32f4xx_hal_tim.o(i.TIM_DMACaptureHalfCplt) refers to stm32f4xx_hal_tim.o(i.HAL_TIM_IC_CaptureHalfCpltCallback) for HAL_TIM_IC_CaptureHalfCpltCallback
    stm32f4xx_hal_tim.o(i.TIM_DMADelayPulseCplt) refers to stm32f4xx_hal_tim.o(i.HAL_TIM_PWM_PulseFinishedCallback) for HAL_TIM_PWM_PulseFinishedCallback
    stm32f4xx_hal_tim.o(i.TIM_DMADelayPulseHalfCplt) refers to stm32f4xx_hal_tim.o(i.HAL_TIM_PWM_PulseFinishedHalfCpltCallback) for HAL_TIM_PWM_PulseFinishedHalfCpltCallback
    stm32f4xx_hal_tim.o(i.TIM_DMAError) refers to stm32f4xx_hal_tim.o(i.HAL_TIM_ErrorCallback) for HAL_TIM_ErrorCallback
    stm32f4xx_hal_tim.o(i.TIM_DMAPeriodElapsedCplt) refers to tim.o(i.HAL_TIM_PeriodElapsedCallback) for HAL_TIM_PeriodElapsedCallback
    stm32f4xx_hal_tim.o(i.TIM_DMAPeriodElapsedHalfCplt) refers to stm32f4xx_hal_tim.o(i.HAL_TIM_PeriodElapsedHalfCpltCallback) for HAL_TIM_PeriodElapsedHalfCpltCallback
    stm32f4xx_hal_tim.o(i.TIM_DMATriggerCplt) refers to stm32f4xx_hal_tim.o(i.HAL_TIM_TriggerCallback) for HAL_TIM_TriggerCallback
    stm32f4xx_hal_tim.o(i.TIM_DMATriggerHalfCplt) refers to stm32f4xx_hal_tim.o(i.HAL_TIM_TriggerHalfCpltCallback) for HAL_TIM_TriggerHalfCpltCallback
    stm32f4xx_hal_tim_ex.o(i.HAL_TIMEx_ConfigCommutEvent_DMA) refers to stm32f4xx_hal_tim_ex.o(i.TIMEx_DMACommutationCplt) for TIMEx_DMACommutationCplt
    stm32f4xx_hal_tim_ex.o(i.HAL_TIMEx_ConfigCommutEvent_DMA) refers to stm32f4xx_hal_tim_ex.o(i.TIMEx_DMACommutationHalfCplt) for TIMEx_DMACommutationHalfCplt
    stm32f4xx_hal_tim_ex.o(i.HAL_TIMEx_ConfigCommutEvent_DMA) refers to stm32f4xx_hal_tim.o(i.TIM_DMAError) for TIM_DMAError
    stm32f4xx_hal_tim_ex.o(i.HAL_TIMEx_HallSensor_DeInit) refers to stm32f4xx_hal_tim_ex.o(i.HAL_TIMEx_HallSensor_MspDeInit) for HAL_TIMEx_HallSensor_MspDeInit
    stm32f4xx_hal_tim_ex.o(i.HAL_TIMEx_HallSensor_Init) refers to stm32f4xx_hal_tim_ex.o(i.HAL_TIMEx_HallSensor_MspInit) for HAL_TIMEx_HallSensor_MspInit
    stm32f4xx_hal_tim_ex.o(i.HAL_TIMEx_HallSensor_Init) refers to stm32f4xx_hal_tim.o(i.TIM_Base_SetConfig) for TIM_Base_SetConfig
    stm32f4xx_hal_tim_ex.o(i.HAL_TIMEx_HallSensor_Init) refers to stm32f4xx_hal_tim.o(i.TIM_TI1_SetConfig) for TIM_TI1_SetConfig
    stm32f4xx_hal_tim_ex.o(i.HAL_TIMEx_HallSensor_Init) refers to stm32f4xx_hal_tim.o(i.TIM_OC2_SetConfig) for TIM_OC2_SetConfig
    stm32f4xx_hal_tim_ex.o(i.HAL_TIMEx_HallSensor_Start) refers to stm32f4xx_hal_tim.o(i.TIM_CCxChannelCmd) for TIM_CCxChannelCmd
    stm32f4xx_hal_tim_ex.o(i.HAL_TIMEx_HallSensor_Start_DMA) refers to stm32f4xx_hal_tim.o(i.TIM_CCxChannelCmd) for TIM_CCxChannelCmd
    stm32f4xx_hal_tim_ex.o(i.HAL_TIMEx_HallSensor_Start_DMA) refers to stm32f4xx_hal_dma.o(i.HAL_DMA_Start_IT) for HAL_DMA_Start_IT
    stm32f4xx_hal_tim_ex.o(i.HAL_TIMEx_HallSensor_Start_DMA) refers to stm32f4xx_hal_tim.o(i.TIM_DMACaptureCplt) for TIM_DMACaptureCplt
    stm32f4xx_hal_tim_ex.o(i.HAL_TIMEx_HallSensor_Start_DMA) refers to stm32f4xx_hal_tim.o(i.TIM_DMACaptureHalfCplt) for TIM_DMACaptureHalfCplt
    stm32f4xx_hal_tim_ex.o(i.HAL_TIMEx_HallSensor_Start_DMA) refers to stm32f4xx_hal_tim.o(i.TIM_DMAError) for TIM_DMAError
    stm32f4xx_hal_tim_ex.o(i.HAL_TIMEx_HallSensor_Start_IT) refers to stm32f4xx_hal_tim.o(i.TIM_CCxChannelCmd) for TIM_CCxChannelCmd
    stm32f4xx_hal_tim_ex.o(i.HAL_TIMEx_HallSensor_Stop) refers to stm32f4xx_hal_tim.o(i.TIM_CCxChannelCmd) for TIM_CCxChannelCmd
    stm32f4xx_hal_tim_ex.o(i.HAL_TIMEx_HallSensor_Stop_DMA) refers to stm32f4xx_hal_tim.o(i.TIM_CCxChannelCmd) for TIM_CCxChannelCmd
    stm32f4xx_hal_tim_ex.o(i.HAL_TIMEx_HallSensor_Stop_DMA) refers to stm32f4xx_hal_dma.o(i.HAL_DMA_Abort_IT) for HAL_DMA_Abort_IT
    stm32f4xx_hal_tim_ex.o(i.HAL_TIMEx_HallSensor_Stop_IT) refers to stm32f4xx_hal_tim.o(i.TIM_CCxChannelCmd) for TIM_CCxChannelCmd
    stm32f4xx_hal_tim_ex.o(i.HAL_TIMEx_OCN_Start_DMA) refers to stm32f4xx_hal_dma.o(i.HAL_DMA_Start_IT) for HAL_DMA_Start_IT
    stm32f4xx_hal_tim_ex.o(i.HAL_TIMEx_OCN_Start_DMA) refers to stm32f4xx_hal_tim.o(i.TIM_DMADelayPulseCplt) for TIM_DMADelayPulseCplt
    stm32f4xx_hal_tim_ex.o(i.HAL_TIMEx_OCN_Start_DMA) refers to stm32f4xx_hal_tim.o(i.TIM_DMADelayPulseHalfCplt) for TIM_DMADelayPulseHalfCplt
    stm32f4xx_hal_tim_ex.o(i.HAL_TIMEx_OCN_Start_DMA) refers to stm32f4xx_hal_tim.o(i.TIM_DMAError) for TIM_DMAError
    stm32f4xx_hal_tim_ex.o(i.HAL_TIMEx_OCN_Stop_DMA) refers to stm32f4xx_hal_dma.o(i.HAL_DMA_Abort_IT) for HAL_DMA_Abort_IT
    stm32f4xx_hal_tim_ex.o(i.HAL_TIMEx_PWMN_Start_DMA) refers to stm32f4xx_hal_dma.o(i.HAL_DMA_Start_IT) for HAL_DMA_Start_IT
    stm32f4xx_hal_tim_ex.o(i.HAL_TIMEx_PWMN_Start_DMA) refers to stm32f4xx_hal_tim.o(i.TIM_DMADelayPulseCplt) for TIM_DMADelayPulseCplt
    stm32f4xx_hal_tim_ex.o(i.HAL_TIMEx_PWMN_Start_DMA) refers to stm32f4xx_hal_tim.o(i.TIM_DMADelayPulseHalfCplt) for TIM_DMADelayPulseHalfCplt
    stm32f4xx_hal_tim_ex.o(i.HAL_TIMEx_PWMN_Start_DMA) refers to stm32f4xx_hal_tim.o(i.TIM_DMAError) for TIM_DMAError
    stm32f4xx_hal_tim_ex.o(i.HAL_TIMEx_PWMN_Stop_DMA) refers to stm32f4xx_hal_dma.o(i.HAL_DMA_Abort_IT) for HAL_DMA_Abort_IT
    stm32f4xx_hal_tim_ex.o(i.TIMEx_DMACommutationCplt) refers to stm32f4xx_hal_tim_ex.o(i.HAL_TIMEx_CommutCallback) for HAL_TIMEx_CommutCallback
    stm32f4xx_hal_tim_ex.o(i.TIMEx_DMACommutationHalfCplt) refers to stm32f4xx_hal_tim_ex.o(i.HAL_TIMEx_CommutHalfCpltCallback) for HAL_TIMEx_CommutHalfCpltCallback
    stm32f4xx_hal_uart.o(i.HAL_HalfDuplex_Init) refers to stm32f4xx_hal_msp.o(i.HAL_UART_MspInit) for HAL_UART_MspInit
    stm32f4xx_hal_uart.o(i.HAL_HalfDuplex_Init) refers to stm32f4xx_hal_uart.o(i.UART_SetConfig) for UART_SetConfig
    stm32f4xx_hal_uart.o(i.HAL_LIN_Init) refers to stm32f4xx_hal_msp.o(i.HAL_UART_MspInit) for HAL_UART_MspInit
    stm32f4xx_hal_uart.o(i.HAL_LIN_Init) refers to stm32f4xx_hal_uart.o(i.UART_SetConfig) for UART_SetConfig
    stm32f4xx_hal_uart.o(i.HAL_MultiProcessor_Init) refers to stm32f4xx_hal_msp.o(i.HAL_UART_MspInit) for HAL_UART_MspInit
    stm32f4xx_hal_uart.o(i.HAL_MultiProcessor_Init) refers to stm32f4xx_hal_uart.o(i.UART_SetConfig) for UART_SetConfig
    stm32f4xx_hal_uart.o(i.HAL_UARTEx_ReceiveToIdle) refers to stm32f4xx_hal.o(i.HAL_GetTick) for HAL_GetTick
    stm32f4xx_hal_uart.o(i.HAL_UARTEx_ReceiveToIdle_DMA) refers to stm32f4xx_hal_uart.o(i.UART_Start_Receive_DMA) for UART_Start_Receive_DMA
    stm32f4xx_hal_uart.o(i.HAL_UART_Abort) refers to stm32f4xx_hal_dma.o(i.HAL_DMA_Abort) for HAL_DMA_Abort
    stm32f4xx_hal_uart.o(i.HAL_UART_Abort) refers to stm32f4xx_hal_dma.o(i.HAL_DMA_GetError) for HAL_DMA_GetError
    stm32f4xx_hal_uart.o(i.HAL_UART_AbortReceive) refers to stm32f4xx_hal_dma.o(i.HAL_DMA_Abort) for HAL_DMA_Abort
    stm32f4xx_hal_uart.o(i.HAL_UART_AbortReceive) refers to stm32f4xx_hal_dma.o(i.HAL_DMA_GetError) for HAL_DMA_GetError
    stm32f4xx_hal_uart.o(i.HAL_UART_AbortReceive_IT) refers to stm32f4xx_hal_dma.o(i.HAL_DMA_Abort_IT) for HAL_DMA_Abort_IT
    stm32f4xx_hal_uart.o(i.HAL_UART_AbortReceive_IT) refers to stm32f4xx_hal_uart.o(i.HAL_UART_AbortReceiveCpltCallback) for HAL_UART_AbortReceiveCpltCallback
    stm32f4xx_hal_uart.o(i.HAL_UART_AbortReceive_IT) refers to stm32f4xx_hal_uart.o(i.UART_DMARxOnlyAbortCallback) for UART_DMARxOnlyAbortCallback
    stm32f4xx_hal_uart.o(i.HAL_UART_AbortTransmit) refers to stm32f4xx_hal_dma.o(i.HAL_DMA_Abort) for HAL_DMA_Abort
    stm32f4xx_hal_uart.o(i.HAL_UART_AbortTransmit) refers to stm32f4xx_hal_dma.o(i.HAL_DMA_GetError) for HAL_DMA_GetError
    stm32f4xx_hal_uart.o(i.HAL_UART_AbortTransmit_IT) refers to stm32f4xx_hal_dma.o(i.HAL_DMA_Abort_IT) for HAL_DMA_Abort_IT
    stm32f4xx_hal_uart.o(i.HAL_UART_AbortTransmit_IT) refers to stm32f4xx_hal_uart.o(i.HAL_UART_AbortTransmitCpltCallback) for HAL_UART_AbortTransmitCpltCallback
    stm32f4xx_hal_uart.o(i.HAL_UART_AbortTransmit_IT) refers to stm32f4xx_hal_uart.o(i.UART_DMATxOnlyAbortCallback) for UART_DMATxOnlyAbortCallback
    stm32f4xx_hal_uart.o(i.HAL_UART_Abort_IT) refers to stm32f4xx_hal_dma.o(i.HAL_DMA_Abort_IT) for HAL_DMA_Abort_IT
    stm32f4xx_hal_uart.o(i.HAL_UART_Abort_IT) refers to stm32f4xx_hal_uart.o(i.HAL_UART_AbortCpltCallback) for HAL_UART_AbortCpltCallback
    stm32f4xx_hal_uart.o(i.HAL_UART_Abort_IT) refers to stm32f4xx_hal_uart.o(i.UART_DMATxAbortCallback) for UART_DMATxAbortCallback
    stm32f4xx_hal_uart.o(i.HAL_UART_Abort_IT) refers to stm32f4xx_hal_uart.o(i.UART_DMARxAbortCallback) for UART_DMARxAbortCallback
    stm32f4xx_hal_uart.o(i.HAL_UART_DMAStop) refers to stm32f4xx_hal_dma.o(i.HAL_DMA_Abort) for HAL_DMA_Abort
    stm32f4xx_hal_uart.o(i.HAL_UART_DeInit) refers to stm32f4xx_hal_msp.o(i.HAL_UART_MspDeInit) for HAL_UART_MspDeInit
    stm32f4xx_hal_uart.o(i.HAL_UART_IRQHandler) refers to stm32f4xx_hal_uart.o(i.UART_Receive_IT) for UART_Receive_IT
    stm32f4xx_hal_uart.o(i.HAL_UART_IRQHandler) refers to stm32f4xx_hal_dma.o(i.HAL_DMA_Abort_IT) for HAL_DMA_Abort_IT
    stm32f4xx_hal_uart.o(i.HAL_UART_IRQHandler) refers to stm32f4xx_hal_uart.o(i.HAL_UART_ErrorCallback) for HAL_UART_ErrorCallback
    stm32f4xx_hal_uart.o(i.HAL_UART_IRQHandler) refers to stm32f4xx_hal_dma.o(i.HAL_DMA_Abort) for HAL_DMA_Abort
    stm32f4xx_hal_uart.o(i.HAL_UART_IRQHandler) refers to stm32f4xx_hal_uart.o(i.HAL_UARTEx_RxEventCallback) for HAL_UARTEx_RxEventCallback
    stm32f4xx_hal_uart.o(i.HAL_UART_IRQHandler) refers to stm32f4xx_hal_uart.o(i.HAL_UART_TxCpltCallback) for HAL_UART_TxCpltCallback
    stm32f4xx_hal_uart.o(i.HAL_UART_IRQHandler) refers to stm32f4xx_hal_uart.o(i.UART_DMAAbortOnError) for UART_DMAAbortOnError
    stm32f4xx_hal_uart.o(i.HAL_UART_Init) refers to stm32f4xx_hal_msp.o(i.HAL_UART_MspInit) for HAL_UART_MspInit
    stm32f4xx_hal_uart.o(i.HAL_UART_Init) refers to stm32f4xx_hal_uart.o(i.UART_SetConfig) for UART_SetConfig
    stm32f4xx_hal_uart.o(i.HAL_UART_Receive) refers to stm32f4xx_hal.o(i.HAL_GetTick) for HAL_GetTick
    stm32f4xx_hal_uart.o(i.HAL_UART_Receive_DMA) refers to stm32f4xx_hal_uart.o(i.UART_Start_Receive_DMA) for UART_Start_Receive_DMA
    stm32f4xx_hal_uart.o(i.HAL_UART_Transmit) refers to stm32f4xx_hal.o(i.HAL_GetTick) for HAL_GetTick
    stm32f4xx_hal_uart.o(i.HAL_UART_Transmit) refers to stm32f4xx_hal_uart.o(i.UART_WaitOnFlagUntilTimeout) for UART_WaitOnFlagUntilTimeout
    stm32f4xx_hal_uart.o(i.HAL_UART_Transmit_DMA) refers to stm32f4xx_hal_dma.o(i.HAL_DMA_Start_IT) for HAL_DMA_Start_IT
    stm32f4xx_hal_uart.o(i.HAL_UART_Transmit_DMA) refers to stm32f4xx_hal_uart.o(i.UART_DMATransmitCplt) for UART_DMATransmitCplt
    stm32f4xx_hal_uart.o(i.HAL_UART_Transmit_DMA) refers to stm32f4xx_hal_uart.o(i.UART_DMATxHalfCplt) for UART_DMATxHalfCplt
    stm32f4xx_hal_uart.o(i.HAL_UART_Transmit_DMA) refers to stm32f4xx_hal_uart.o(i.UART_DMAError) for UART_DMAError
    stm32f4xx_hal_uart.o(i.UART_DMAAbortOnError) refers to stm32f4xx_hal_uart.o(i.HAL_UART_ErrorCallback) for HAL_UART_ErrorCallback
    stm32f4xx_hal_uart.o(i.UART_DMAError) refers to stm32f4xx_hal_uart.o(i.HAL_UART_ErrorCallback) for HAL_UART_ErrorCallback
    stm32f4xx_hal_uart.o(i.UART_DMAReceiveCplt) refers to sbus.o(i.HAL_UART_RxCpltCallback) for HAL_UART_RxCpltCallback
    stm32f4xx_hal_uart.o(i.UART_DMAReceiveCplt) refers to stm32f4xx_hal_uart.o(i.HAL_UARTEx_RxEventCallback) for HAL_UARTEx_RxEventCallback
    stm32f4xx_hal_uart.o(i.UART_DMARxAbortCallback) refers to stm32f4xx_hal_uart.o(i.HAL_UART_AbortCpltCallback) for HAL_UART_AbortCpltCallback
    stm32f4xx_hal_uart.o(i.UART_DMARxHalfCplt) refers to stm32f4xx_hal_uart.o(i.HAL_UART_RxHalfCpltCallback) for HAL_UART_RxHalfCpltCallback
    stm32f4xx_hal_uart.o(i.UART_DMARxHalfCplt) refers to stm32f4xx_hal_uart.o(i.HAL_UARTEx_RxEventCallback) for HAL_UARTEx_RxEventCallback
    stm32f4xx_hal_uart.o(i.UART_DMARxOnlyAbortCallback) refers to stm32f4xx_hal_uart.o(i.HAL_UART_AbortReceiveCpltCallback) for HAL_UART_AbortReceiveCpltCallback
    stm32f4xx_hal_uart.o(i.UART_DMATransmitCplt) refers to stm32f4xx_hal_uart.o(i.HAL_UART_TxCpltCallback) for HAL_UART_TxCpltCallback
    stm32f4xx_hal_uart.o(i.UART_DMATxAbortCallback) refers to stm32f4xx_hal_uart.o(i.HAL_UART_AbortCpltCallback) for HAL_UART_AbortCpltCallback
    stm32f4xx_hal_uart.o(i.UART_DMATxHalfCplt) refers to stm32f4xx_hal_uart.o(i.HAL_UART_TxHalfCpltCallback) for HAL_UART_TxHalfCpltCallback
    stm32f4xx_hal_uart.o(i.UART_DMATxOnlyAbortCallback) refers to stm32f4xx_hal_uart.o(i.HAL_UART_AbortTransmitCpltCallback) for HAL_UART_AbortTransmitCpltCallback
    stm32f4xx_hal_uart.o(i.UART_Receive_IT) refers to sbus.o(i.HAL_UART_RxCpltCallback) for HAL_UART_RxCpltCallback
    stm32f4xx_hal_uart.o(i.UART_Receive_IT) refers to stm32f4xx_hal_uart.o(i.HAL_UARTEx_RxEventCallback) for HAL_UARTEx_RxEventCallback
    stm32f4xx_hal_uart.o(i.UART_SetConfig) refers to stm32f4xx_hal_rcc.o(i.HAL_RCC_GetPCLK1Freq) for HAL_RCC_GetPCLK1Freq
    stm32f4xx_hal_uart.o(i.UART_SetConfig) refers to uldiv.o(.text) for __aeabi_uldivmod
    stm32f4xx_hal_uart.o(i.UART_SetConfig) refers to stm32f4xx_hal_rcc.o(i.HAL_RCC_GetPCLK2Freq) for HAL_RCC_GetPCLK2Freq
    stm32f4xx_hal_uart.o(i.UART_Start_Receive_DMA) refers to stm32f4xx_hal_dma.o(i.HAL_DMA_Start_IT) for HAL_DMA_Start_IT
    stm32f4xx_hal_uart.o(i.UART_Start_Receive_DMA) refers to stm32f4xx_hal_uart.o(i.UART_DMAReceiveCplt) for UART_DMAReceiveCplt
    stm32f4xx_hal_uart.o(i.UART_Start_Receive_DMA) refers to stm32f4xx_hal_uart.o(i.UART_DMARxHalfCplt) for UART_DMARxHalfCplt
    stm32f4xx_hal_uart.o(i.UART_Start_Receive_DMA) refers to stm32f4xx_hal_uart.o(i.UART_DMAError) for UART_DMAError
    stm32f4xx_hal_uart.o(i.UART_WaitOnFlagUntilTimeout) refers to stm32f4xx_hal.o(i.HAL_GetTick) for HAL_GetTick
    system_stm32f4xx.o(i.SystemCoreClockUpdate) refers to system_stm32f4xx.o(.data) for .data
    system_stm32f4xx.o(i.SystemCoreClockUpdate) refers to system_stm32f4xx.o(.constdata) for .constdata
    can_receive.o(i.CAN_cmd_AGV_chassis) refers to stm32f4xx_hal_can.o(i.HAL_CAN_AddTxMessage) for HAL_CAN_AddTxMessage
    can_receive.o(i.CAN_cmd_AGV_chassis) refers to can_receive.o(.bss) for .bss
    can_receive.o(i.CAN_cmd_AGV_chassis) refers to can_receive.o(.data) for .data
    can_receive.o(i.CAN_cmd_AGV_chassis) refers to can.o(.bss) for hcan1
    can_receive.o(i.CAN_cmd_chassis) refers to stm32f4xx_hal_can.o(i.HAL_CAN_GetState) for HAL_CAN_GetState
    can_receive.o(i.CAN_cmd_chassis) refers to stm32f4xx_hal_can.o(i.HAL_CAN_AddTxMessage) for HAL_CAN_AddTxMessage
    can_receive.o(i.CAN_cmd_chassis) refers to can_receive.o(.bss) for .bss
    can_receive.o(i.CAN_cmd_chassis) refers to can_receive.o(.data) for .data
    can_receive.o(i.CAN_cmd_chassis) refers to can.o(.bss) for hcan1
    can_receive.o(i.CAN_cmd_gimbal1) refers to stm32f4xx_hal_can.o(i.HAL_CAN_AddTxMessage) for HAL_CAN_AddTxMessage
    can_receive.o(i.CAN_cmd_gimbal1) refers to can_receive.o(.bss) for .bss
    can_receive.o(i.CAN_cmd_gimbal1) refers to can_receive.o(.data) for .data
    can_receive.o(i.CAN_cmd_gimbal1) refers to can.o(.bss) for hcan2
    can_receive.o(i.CAN_cmd_gimbal2) refers to stm32f4xx_hal_can.o(i.HAL_CAN_GetState) for HAL_CAN_GetState
    can_receive.o(i.CAN_cmd_gimbal2) refers to stm32f4xx_hal_can.o(i.HAL_CAN_AddTxMessage) for HAL_CAN_AddTxMessage
    can_receive.o(i.CAN_cmd_gimbal2) refers to stm32f4xx_hal_can.o(i.HAL_CAN_GetError) for HAL_CAN_GetError
    can_receive.o(i.CAN_cmd_gimbal2) refers to can_receive.o(.bss) for .bss
    can_receive.o(i.CAN_cmd_gimbal2) refers to can_receive.o(.data) for .data
    can_receive.o(i.CAN_cmd_gimbal2) refers to can.o(.bss) for hcan2
    can_receive.o(i.HAL_CAN_RxFifo0MsgPendingCallback) refers to stm32f4xx_hal_can.o(i.HAL_CAN_GetRxMessage) for HAL_CAN_GetRxMessage
    can_receive.o(i.HAL_CAN_RxFifo0MsgPendingCallback) refers to can_receive.o(i.get_MotorTotalAngle) for get_MotorTotalAngle
    can_receive.o(i.HAL_CAN_RxFifo0MsgPendingCallback) refers to stm32f4xx_hal_can.o(i.HAL_CAN_GetRxFifoFillLevel) for HAL_CAN_GetRxFifoFillLevel
    can_receive.o(i.HAL_CAN_RxFifo0MsgPendingCallback) refers to can_receive.o(.data) for .data
    can_receive.o(i.HAL_CAN_RxFifo0MsgPendingCallback) refers to can.o(.bss) for hcan1
    can_receive.o(i.HAL_CAN_RxFifo0MsgPendingCallback) refers to can_receive.o(.bss) for .bss
    can_receive.o(i.get_chassis_motor_measure_point) refers to can_receive.o(.bss) for .bss
    can_receive.o(i.get_pitch_gimbal_motor_measure_point) refers to can_receive.o(.bss) for .bss
    can_receive.o(i.get_trigger_motor_measure_point) refers to can_receive.o(.bss) for .bss
    can_receive.o(i.get_yaw_gimbal_motor_measure_point) refers to can_receive.o(.bss) for .bss
    can.o(i.MX_CAN1_Init) refers to stm32f4xx_hal_can.o(i.HAL_CAN_Init) for HAL_CAN_Init
    can.o(i.MX_CAN1_Init) refers to main.o(i.Error_Handler) for Error_Handler
    can.o(i.MX_CAN1_Init) refers to stm32f4xx_hal_can.o(i.HAL_CAN_ConfigFilter) for HAL_CAN_ConfigFilter
    can.o(i.MX_CAN1_Init) refers to stm32f4xx_hal_can.o(i.HAL_CAN_ActivateNotification) for HAL_CAN_ActivateNotification
    can.o(i.MX_CAN1_Init) refers to stm32f4xx_hal_can.o(i.HAL_CAN_Start) for HAL_CAN_Start
    can.o(i.MX_CAN1_Init) refers to can.o(.bss) for .bss
    can.o(i.MX_CAN1_Init) refers to can.o(.data) for .data
    can.o(i.MX_CAN2_Init1) refers to stm32f4xx_hal_can.o(i.HAL_CAN_Init) for HAL_CAN_Init
    can.o(i.MX_CAN2_Init1) refers to stm32f4xx_hal_can.o(i.HAL_CAN_ConfigFilter) for HAL_CAN_ConfigFilter
    can.o(i.MX_CAN2_Init1) refers to stm32f4xx_hal_can.o(i.HAL_CAN_ActivateNotification) for HAL_CAN_ActivateNotification
    can.o(i.MX_CAN2_Init1) refers to stm32f4xx_hal_can.o(i.HAL_CAN_Start) for HAL_CAN_Start
    can.o(i.MX_CAN2_Init1) refers to can.o(.bss) for .bss
    can.o(i.MX_CAN2_Init1) refers to can.o(.data) for .data
    sbus.o(i.HAL_UART_RxCpltCallback) refers to stm32f4xx_hal_uart.o(i.HAL_UART_AbortReceive) for HAL_UART_AbortReceive
    sbus.o(i.HAL_UART_RxCpltCallback) refers to memseta.o(.text) for __aeabi_memclr
    sbus.o(i.HAL_UART_RxCpltCallback) refers to stm32f4xx_hal_uart.o(i.HAL_UART_DeInit) for HAL_UART_DeInit
    sbus.o(i.HAL_UART_RxCpltCallback) refers to stm32f4xx_hal_uart.o(i.HAL_UART_Init) for HAL_UART_Init
    sbus.o(i.HAL_UART_RxCpltCallback) refers to sbus.o(i.sbus_decoder) for sbus_decoder
    sbus.o(i.HAL_UART_RxCpltCallback) refers to stm32f4xx_hal_uart.o(i.HAL_UART_Receive_IT) for HAL_UART_Receive_IT
    sbus.o(i.HAL_UART_RxCpltCallback) refers to sbus.o(i.processReceivedData_R) for processReceivedData_R
    sbus.o(i.HAL_UART_RxCpltCallback) refers to stm32f4xx_hal.o(i.HAL_GetTick) for HAL_GetTick
    sbus.o(i.HAL_UART_RxCpltCallback) refers to sbus.o(i.processReceivedData_V) for processReceivedData_V
    sbus.o(i.HAL_UART_RxCpltCallback) refers to sbus.o(.data) for .data
    sbus.o(i.HAL_UART_RxCpltCallback) refers to sbus.o(.bss) for .bss
    sbus.o(i.HAL_UART_RxCpltCallback) refers to usart.o(.data) for g_uasat1_rx_flag
    sbus.o(i.HAL_UART_RxCpltCallback) refers to usart.o(.data) for last_receive_time
    sbus.o(i.HAL_UART_RxCpltCallback) refers to usart.o(.data) for last_receive_time1
    sbus.o(i.checkRxBufferTimeout) refers to stm32f4xx_hal.o(i.HAL_GetTick) for HAL_GetTick
    sbus.o(i.checkRxBufferTimeout) refers to sbus.o(i.processReceivedData_R) for processReceivedData_R
    sbus.o(i.checkRxBufferTimeout) refers to memseta.o(.text) for __aeabi_memclr4
    sbus.o(i.checkRxBufferTimeout) refers to sbus.o(i.processReceivedData_V) for processReceivedData_V
    sbus.o(i.checkRxBufferTimeout) refers to sbus.o(.data) for .data
    sbus.o(i.checkRxBufferTimeout) refers to usart.o(.data) for last_receive_time
    sbus.o(i.checkRxBufferTimeout) refers to sbus.o(.bss) for .bss
    sbus.o(i.checkRxBufferTimeout) refers to usart.o(.bss) for huart2
    sbus.o(i.checkRxBufferTimeout) refers to usart.o(.data) for last_receive_time1
    sbus.o(i.processReceivedData_R) refers to malloc.o(i.malloc) for malloc
    sbus.o(i.processReceivedData_R) refers to malloc.o(i.free) for free
    sbus.o(i.processReceivedData_R) refers to sbus.o(.bss) for .bss
    sbus.o(i.processReceivedData_V) refers to malloc.o(i.malloc) for malloc
    sbus.o(i.processReceivedData_V) refers to malloc.o(i.free) for free
    sbus.o(i.processReceivedData_V) refers to sbus.o(.bss) for .bss
    sbus.o(i.reset_uart) refers to stm32f4xx_hal_uart.o(i.HAL_UART_AbortReceive) for HAL_UART_AbortReceive
    sbus.o(i.reset_uart) refers to memseta.o(.text) for __aeabi_memclr
    sbus.o(i.reset_uart) refers to stm32f4xx_hal_uart.o(i.HAL_UART_DeInit) for HAL_UART_DeInit
    sbus.o(i.reset_uart) refers to stm32f4xx_hal_uart.o(i.HAL_UART_Init) for HAL_UART_Init
    sbus.o(i.reset_uart) refers to stm32f4xx_hal_uart.o(i.HAL_UART_Receive_IT) for HAL_UART_Receive_IT
    sbus.o(i.reset_uart) refers to sbus.o(.bss) for .bss
    sbus.o(i.sbus_decoder) refers to sbus.o(.data) for .data
    sbus.o(i.sbus_decoder) refers to sbus.o(.bss) for .bss
    usart.o(i.MX_DMA_Init) refers to stm32f4xx_hal_cortex.o(i.HAL_NVIC_SetPriority) for HAL_NVIC_SetPriority
    usart.o(i.MX_DMA_Init) refers to stm32f4xx_hal_cortex.o(i.HAL_NVIC_EnableIRQ) for HAL_NVIC_EnableIRQ
    usart.o(i.MX_USART1_UART_Init) refers to stm32f4xx_hal_uart.o(i.HAL_UART_Init) for HAL_UART_Init
    usart.o(i.MX_USART1_UART_Init) refers to main.o(i.Error_Handler) for Error_Handler
    usart.o(i.MX_USART1_UART_Init) refers to stm32f4xx_hal_uart.o(i.HAL_UART_Receive_IT) for HAL_UART_Receive_IT
    usart.o(i.MX_USART1_UART_Init) refers to usart.o(.bss) for .bss
    usart.o(i.MX_USART1_UART_Init) refers to sbus.o(.bss) for remote_buf
    usart.o(i.MX_USART2_UART_Init) refers to stm32f4xx_hal_uart.o(i.HAL_UART_Init) for HAL_UART_Init
    usart.o(i.MX_USART2_UART_Init) refers to main.o(i.Error_Handler) for Error_Handler
    usart.o(i.MX_USART2_UART_Init) refers to stm32f4xx_hal_uart.o(i.HAL_UART_Receive_IT) for HAL_UART_Receive_IT
    usart.o(i.MX_USART2_UART_Init) refers to usart.o(.bss) for .bss
    usart.o(i.MX_USART2_UART_Init) refers to sbus.o(.bss) for rx_buffer_R
    usart.o(i.MX_USART3_UART_Init) refers to stm32f4xx_hal_uart.o(i.HAL_UART_Init) for HAL_UART_Init
    usart.o(i.MX_USART3_UART_Init) refers to main.o(i.Error_Handler) for Error_Handler
    usart.o(i.MX_USART3_UART_Init) refers to stm32f4xx_hal_uart.o(i.HAL_UART_Receive_DMA) for HAL_UART_Receive_DMA
    usart.o(i.MX_USART3_UART_Init) refers to usart.o(.bss) for .bss
    usart.o(i.MX_USART3_UART_Init) refers to hwt101.o(.bss) for kRxBuffer
    usart.o(i.MX_USART6_UART_Init) refers to stm32f4xx_hal_uart.o(i.HAL_UART_Init) for HAL_UART_Init
    usart.o(i.MX_USART6_UART_Init) refers to main.o(i.Error_Handler) for Error_Handler
    usart.o(i.MX_USART6_UART_Init) refers to stm32f4xx_hal_uart.o(i.HAL_UART_Receive_IT) for HAL_UART_Receive_IT
    usart.o(i.MX_USART6_UART_Init) refers to usart.o(.bss) for .bss
    usart.o(i.MX_USART6_UART_Init) refers to sbus.o(.bss) for rx_buffer_V
    pid.o(i.PID_incremental) refers to f2d.o(.text) for __aeabi_f2d
    pid.o(i.PID_incremental) refers to dadd.o(.text) for __aeabi_drsub
    pid.o(i.PID_incremental) refers to d2f.o(.text) for __aeabi_d2f
    pid.o(i.PID_incremental) refers to pid.o(.data) for .data
    pid.o(i.pid_set) refers to niming.o(i.send_sensorData) for send_sensorData
    pid.o(i.pid_set) refers to can_receive.o(.bss) for motor_chassis
    chassis.o(i.CHASSIS_Init) refers to pid.o(i.PID_Init) for PID_Init
    chassis.o(i.CHASSIS_Init) refers to chassis.o(.bss) for .bss
    chassis.o(i.CHASSIS_PID_Init) refers to pid.o(i.PID_SET) for PID_SET
    chassis.o(i.CHASSIS_PID_Init) refers to d2f.o(.text) for __aeabi_d2f
    chassis.o(i.CHASSIS_PID_Init) refers to chassis.o(.bss) for .bss
    chassis.o(i.Control_Task) refers to chassis.o(i.remote_control_) for remote_control_
    chassis.o(i.Control_Task) refers to can_receive.o(i.CAN_cmd_AGV_chassis) for CAN_cmd_AGV_chassis
    chassis.o(i.Control_Task) refers to can_receive.o(i.CAN_cmd_chassis) for CAN_cmd_chassis
    chassis.o(i.Control_Task) refers to mode_choic.o(.data) for control_current_State
    chassis.o(i.Control_Task) refers to sbus.o(.bss) for sbus_struct
    chassis.o(i.Control_Task) refers to sbus.o(.data) for sbus_flag
    chassis.o(i.Speed_loop) refers to pid.o(i.PID_incremental) for PID_incremental
    chassis.o(i.Speed_loop) refers to f2d.o(.text) for __aeabi_f2d
    chassis.o(i.Speed_loop) refers to pid.o(i.PID_position) for PID_position
    chassis.o(i.Speed_loop) refers to d2f.o(.text) for __aeabi_d2f
    chassis.o(i.Speed_loop) refers to can_receive.o(.bss) for motor_chassis
    chassis.o(i.Speed_loop) refers to chassis.o(.bss) for .bss
    chassis.o(i.Target_speed) refers to cdcmple.o(.text) for __aeabi_cdcmpeq
    chassis.o(i.Target_speed) refers to atan2.o(i.__hardfp_atan2) for __hardfp_atan2
    chassis.o(i.Target_speed) refers to dmul.o(.text) for __aeabi_dmul
    chassis.o(i.Target_speed) refers to ddiv.o(.text) for __aeabi_ddiv
    chassis.o(i.Target_speed) refers to d2f.o(.text) for __aeabi_d2f
    chassis.o(i.Target_speed) refers to chassis.o(.bss) for .bss
    chassis.o(i.Target_speed) refers to chassis.o(.data) for .data
    chassis.o(i.angle_to_ecd) refers to f2d.o(.text) for __aeabi_f2d
    chassis.o(i.angle_to_ecd) refers to dmul.o(.text) for __aeabi_dmul
    chassis.o(i.angle_to_ecd) refers to dfixi.o(.text) for __aeabi_d2iz
    chassis.o(i.chassis_limit) refers to f2d.o(.text) for __aeabi_f2d
    chassis.o(i.chassis_limit) refers to cdcmple.o(.text) for __aeabi_cdcmple
    chassis.o(i.chassis_limit) refers to cdrcmple.o(.text) for __aeabi_cdrcmple
    chassis.o(i.remote_control_) refers to chassis.o(i.Steer) for Steer
    chassis.o(i.remote_control_) refers to f2d.o(.text) for __aeabi_f2d
    chassis.o(i.remote_control_) refers to chassis.o(i.chassis_limit) for chassis_limit
    chassis.o(i.remote_control_) refers to chassis.o(i.Target_speed) for Target_speed
    chassis.o(i.remote_control_) refers to chassis.o(i.Speed_loop) for Speed_loop
    chassis.o(i.remote_control_) refers to dfixi.o(.text) for __aeabi_d2iz
    chassis.o(i.remote_control_) refers to can_receive.o(i.CAN_cmd_AGV_chassis) for CAN_cmd_AGV_chassis
    chassis.o(i.remote_control_) refers to can_receive.o(i.CAN_cmd_chassis) for CAN_cmd_chassis
    chassis.o(i.remote_control_) refers to mode_choic.o(.data) for control_current
    chassis.o(i.remote_control_) refers to auto.o(.data) for usa_count
    chassis.o(i.remote_control_) refers to sbus.o(.bss) for sbus_struct
    chassis.o(i.remote_control_) refers to sbus.o(.data) for sbus_flag
    chassis.o(i.remote_control_) refers to chassis.o(.data) for .data
    chassis.o(i.remote_control_) refers to chassis.o(.bss) for .bss
    niming.o(i.send_sensorData) refers to niming.o(i.usart_niming_report) for usart_niming_report
    niming.o(i.usart_niming_report) refers to stm32f4xx_hal_uart.o(i.HAL_UART_Transmit) for HAL_UART_Transmit
    niming.o(i.usart_niming_report) refers to niming.o(.data) for .data
    niming.o(i.usart_niming_report) refers to usart.o(.bss) for huart2
    niming.o(i.usart_send_char) refers to stm32f4xx_hal_uart.o(i.HAL_UART_Transmit) for HAL_UART_Transmit
    niming.o(i.usart_send_char) refers to niming.o(.data) for .data
    superstratum.o(i.ALL_PID_SET) refers to pid.o(i.PID_SET) for PID_SET
    superstratum.o(i.ALL_PID_SET) refers to superstratum.o(.bss) for .bss
    superstratum.o(i.Hair_ring_Init) refers to pid.o(i.PID_Init) for PID_Init
    superstratum.o(i.Hair_ring_Init) refers to superstratum.o(.bss) for .bss
    superstratum.o(i.control_sup_task) refers to superstratum.o(i.remote_control) for remote_control
    superstratum.o(i.control_sup_task) refers to stm32f4xx_hal_gpio.o(i.HAL_GPIO_WritePin) for HAL_GPIO_WritePin
    superstratum.o(i.control_sup_task) refers to can_receive.o(i.CAN_cmd_gimbal1) for CAN_cmd_gimbal1
    superstratum.o(i.control_sup_task) refers to can_receive.o(i.CAN_cmd_gimbal2) for CAN_cmd_gimbal2
    superstratum.o(i.control_sup_task) refers to main.o(.data) for pinstate
    superstratum.o(i.control_sup_task) refers to can_receive.o(.bss) for motor_supestratum
    superstratum.o(i.control_sup_task) refers to superstratum.o(.data) for .data
    superstratum.o(i.control_sup_task) refers to mode_choic.o(.data) for control_current_State
    superstratum.o(i.control_sup_task) refers to sbus.o(.bss) for sbus_struct
    superstratum.o(i.control_sup_task) refers to sbus.o(.data) for sbus_flag
    superstratum.o(i.control_sup_task) refers to auto.o(.data) for Lif_R_Init
    superstratum.o(i.diancifa) refers to stm32f4xx_hal_gpio.o(i.HAL_GPIO_WritePin) for HAL_GPIO_WritePin
    superstratum.o(i.diancifa) refers to sbus.o(.bss) for sbus_struct
    superstratum.o(i.diancifa) refers to superstratum.o(.data) for .data
    superstratum.o(i.motion) refers to pid.o(i.PID_position) for PID_position
    superstratum.o(i.motion) refers to can_receive.o(.bss) for motor_supestratum
    superstratum.o(i.remote_control) refers to chassis.o(i.Steer) for Steer
    superstratum.o(i.remote_control) refers to superstratum.o(i.calculateJoystickIncrement) for calculateJoystickIncrement
    superstratum.o(i.remote_control) refers to superstratum.o(i.motion) for motion
    superstratum.o(i.remote_control) refers to superstratum.o(.data) for .data
    superstratum.o(i.remote_control) refers to auto.o(.data) for Str_L_Init
    superstratum.o(i.remote_control) refers to can_receive.o(.bss) for motor_supestratum
    superstratum.o(i.remote_control) refers to mode_choic.o(.data) for control_current
    superstratum.o(i.remote_control) refers to sbus.o(.bss) for sbus_struct
    superstratum.o(i.remote_control) refers to superstratum.o(.bss) for .bss
    superstratum.o(i.remote_control) refers to can_receive.o(i.CAN_cmd_gimbal1) for CAN_cmd_gimbal1
    superstratum.o(i.remote_control) refers to can_receive.o(i.CAN_cmd_gimbal2) for CAN_cmd_gimbal2
    mode_choic.o(i.mode_judge) refers to mode_choic.o(.data) for .data
    mode_choic.o(i.mode_judge) refers to sbus.o(.bss) for sbus_struct
    mode_choic.o(i.mode_judge) refers to superstratum.o(.data) for M_flag
    auto.o(i.Auto_chassic_mode) refers to stm32f4xx_hal_tim.o(i.HAL_TIM_Base_Start_IT) for HAL_TIM_Base_Start_IT
    auto.o(i.Auto_chassic_mode) refers to cdcmple.o(.text) for __aeabi_cdcmpeq
    auto.o(i.Auto_chassic_mode) refers to dmul.o(.text) for __aeabi_dmul
    auto.o(i.Auto_chassic_mode) refers to dadd.o(.text) for __aeabi_dadd
    auto.o(i.Auto_chassic_mode) refers to sqrt.o(i.__hardfp_sqrt) for __hardfp_sqrt
    auto.o(i.Auto_chassic_mode) refers to cdrcmple.o(.text) for __aeabi_cdrcmple
    auto.o(i.Auto_chassic_mode) refers to chassis.o(i.Target_speed) for Target_speed
    auto.o(i.Auto_chassic_mode) refers to d2f.o(.text) for __aeabi_d2f
    auto.o(i.Auto_chassic_mode) refers to stm32f4xx_hal_tim.o(i.HAL_TIM_Base_Stop_IT) for HAL_TIM_Base_Stop_IT
    auto.o(i.Auto_chassic_mode) refers to f2d.o(.text) for __aeabi_f2d
    auto.o(i.Auto_chassic_mode) refers to auto.o(.data) for .data
    auto.o(i.Auto_chassic_mode) refers to sbus.o(.bss) for receivedDataa
    auto.o(i.Auto_chassic_mode) refers to tim.o(.data) for cnt
    auto.o(i.Auto_chassic_mode) refers to can_receive.o(.bss) for motor_chassis
    auto.o(i.Auto_chassic_mode) refers to chassis.o(.bss) for out_6020_angle
    auto.o(i.Auto_chassic_mode) refers to tim.o(.bss) for htim4
    auto.o(i.Auto_chassic_mode) refers to mode_choic.o(.data) for control_current_State
    auto.o(i.Auto_chassic_mode) refers to hwt101.o(.bss) for All_Data
    auto.o(i.Auto_chassic_mode) refers to chassis.o(i.Speed_loop) for Speed_loop
    auto.o(i.Auto_chassic_mode) refers to dfixi.o(.text) for __aeabi_d2iz
    auto.o(i.Auto_chassic_mode) refers to can_receive.o(i.CAN_cmd_AGV_chassis) for CAN_cmd_AGV_chassis
    auto.o(i.Auto_chassic_mode) refers to can_receive.o(i.CAN_cmd_chassis) for CAN_cmd_chassis
    auto.o(i.Auto_control_task) refers to can_receive.o(i.CAN_cmd_gimbal1) for CAN_cmd_gimbal1
    auto.o(i.Auto_control_task) refers to can_receive.o(i.CAN_cmd_chassis) for CAN_cmd_chassis
    auto.o(i.Auto_control_task) refers to auto.o(i.GET_InitPinstate) for GET_InitPinstate
    auto.o(i.Auto_control_task) refers to sbus.o(i.checkRxBufferTimeout) for checkRxBufferTimeout
    auto.o(i.Auto_control_task) refers to hwt101.o(i.SYSTEM_Init_only) for SYSTEM_Init_only
    auto.o(i.Auto_control_task) refers to auto.o(i.auto_control_state) for auto_control_state
    auto.o(i.Auto_control_task) refers to sbus.o(.bss) for sbus_struct
    auto.o(i.Auto_control_task) refers to hwt101.o(.bss) for All_Data
    auto.o(i.Auto_control_task) refers to auto.o(.data) for .data
    auto.o(i.Auto_control_task) refers to main.o(.data) for pinstate
    auto.o(i.Auto_control_task) refers to sbus.o(.data) for sbus_flag
    auto.o(i.Auto_control_task) refers to hwt101.o(.data) for CALIYAW
    auto.o(i.Auto_control_task) refers to usart.o(.bss) for huart3
    auto.o(i.Auto_control_task) refers to mode_choic.o(.data) for control_current_State
    auto.o(i.Auto_init) refers to auto.o(i.control_sup) for control_sup
    auto.o(i.Auto_init) refers to main.o(.data) for pinstate
    auto.o(i.GET_InitPinstate) refers to stm32f4xx_hal_gpio.o(i.HAL_GPIO_ReadPin) for HAL_GPIO_ReadPin
    auto.o(i.GET_InitPinstate) refers to auto.o(.data) for .data
    auto.o(i.GET_InitPinstate) refers to main.o(.data) for pinstate
    auto.o(i.Key_judgement) refers to sbus.o(.bss) for sbus_struct
    auto.o(i.Key_judgement) refers to auto.o(.data) for .data
    auto.o(i.auto_control_state) refers to auto.o(i.value_init) for value_init
    auto.o(i.auto_control_state) refers to auto.o(i.usart_send_message) for usart_send_message
    auto.o(i.auto_control_state) refers to cdcmple.o(.text) for __aeabi_cdcmpeq
    auto.o(i.auto_control_state) refers to auto.o(i.control_sup) for control_sup
    auto.o(i.auto_control_state) refers to superstratum.o(i.diancifa) for diancifa
    auto.o(i.auto_control_state) refers to d2f.o(.text) for __aeabi_d2f
    auto.o(i.auto_control_state) refers to auto.o(i.Auto_chassic_mode) for Auto_chassic_mode
    auto.o(i.auto_control_state) refers to can_receive.o(i.CAN_cmd_gimbal1) for CAN_cmd_gimbal1
    auto.o(i.auto_control_state) refers to can_receive.o(i.CAN_cmd_gimbal2) for CAN_cmd_gimbal2
    auto.o(i.auto_control_state) refers to mode_choic.o(.data) for control_current
    auto.o(i.auto_control_state) refers to auto.o(.data) for .data
    auto.o(i.auto_control_state) refers to usart.o(.bss) for huart2
    auto.o(i.auto_control_state) refers to main.o(.data) for pinstate
    auto.o(i.auto_control_state) refers to can_receive.o(.bss) for motor_supestratum
    auto.o(i.auto_control_state) refers to superstratum.o(.bss) for fa_output
    auto.o(i.auto_control_state) refers to sbus.o(.bss) for receivedDataa
    auto.o(i.auto_control_state) refers to tim.o(.data) for cnt
    auto.o(i.auto_control_state) refers to superstratum.o(.bss) for Uplift_Motor4_Pid
    auto.o(i.calculate_auto_tar_angle) refers to dmul.o(.text) for __aeabi_dmul
    auto.o(i.calculate_auto_tar_angle) refers to ddiv.o(.text) for __aeabi_ddiv
    auto.o(i.calculate_auto_tar_angle) refers to sin.o(i.__hardfp_sin) for __hardfp_sin
    auto.o(i.calculate_auto_tar_angle) refers to dadd.o(.text) for __aeabi_dsub
    auto.o(i.calculate_auto_tar_angle) refers to cos.o(i.__hardfp_cos) for __hardfp_cos
    auto.o(i.calculate_auto_tar_angle) refers to atan.o(i.__hardfp_atan) for __hardfp_atan
    auto.o(i.control_sup) refers to superstratum.o(i.motion) for motion
    auto.o(i.control_sup) refers to add.o(.bss) for target_limit
    auto.o(i.control_sup) refers to auto.o(.data) for .data
    auto.o(i.control_sup) refers to superstratum.o(.bss) for Uplift_Motor3_Pid
    auto.o(i.usart_send_message) refers to niming.o(i.usart_send_char) for usart_send_char
    auto.o(i.usart_send_message) refers to auto.o(.data) for .data
    auto.o(i.value_init) refers to auto.o(i.control_sup) for control_sup
    auto.o(i.value_init) refers to superstratum.o(.bss) for angle
    auto.o(i.value_init) refers to can_receive.o(.bss) for motor_supestratum
    auto.o(i.value_init) refers to auto.o(.data) for .data
    auto.o(i.value_init) refers to main.o(.data) for pinstate
    add.o(i.sup_add_task) refers to stm32f4xx_hal_gpio.o(i.HAL_GPIO_ReadPin) for HAL_GPIO_ReadPin
    add.o(i.sup_add_task) refers to add.o(.data) for .data
    add.o(i.sup_add_task) refers to auto.o(.data) for Pinit_flag1
    add.o(i.sup_add_task) refers to add.o(.bss) for .bss
    add.o(i.sup_add_task) refers to mode_choic.o(.data) for control_current
    hwt101.o(i.Data_reception) refers to hwt101.o(i.HWT605_Data) for HWT605_Data
    hwt101.o(i.Data_reception) refers to hwt101.o(.bss) for .bss
    hwt101.o(i.Data_reception) refers to hwt101.o(.data) for .data
    hwt101.o(i.Data_reception_DMA_only) refers to hwt101.o(i.HWT605_Data) for HWT605_Data
    hwt101.o(i.Data_reception_DMA_only) refers to hwt101.o(.bss) for .bss
    hwt101.o(i.Data_reception_DMA_only) refers to hwt101.o(.data) for .data
    hwt101.o(i.HWT605_Data) refers to dflti.o(.text) for __aeabi_i2d
    hwt101.o(i.HWT605_Data) refers to dmul.o(.text) for __aeabi_dmul
    hwt101.o(i.HWT605_Data) refers to d2f.o(.text) for __aeabi_d2f
    hwt101.o(i.HWT605_Data) refers to ddiv.o(.text) for __aeabi_ddiv
    hwt101.o(i.HWT605_Data) refers to hwt101.o(.bss) for .bss
    hwt101.o(i.HWT605_Data) refers to hwt101.o(.data) for .data
    hwt101.o(i.SET_configure) refers to stm32f4xx_hal_uart.o(i.HAL_UART_Transmit) for HAL_UART_Transmit
    hwt101.o(i.SYSTEM_Init_most) refers to stm32f4xx_hal_uart.o(i.HAL_UART_Transmit) for HAL_UART_Transmit
    hwt101.o(i.SYSTEM_Init_most) refers to hwt101.o(.data) for .data
    hwt101.o(i.SYSTEM_Init_only) refers to stm32f4xx_hal_uart.o(i.HAL_UART_Transmit) for HAL_UART_Transmit
    hwt101.o(i.USER_GYRO_IDLE_IRQHandler) refers to stm32f4xx_hal_uart.o(i.HAL_UART_DMAStop) for HAL_UART_DMAStop
    hwt101.o(i.USER_GYRO_IDLE_IRQHandler) refers to hwt101.o(i.HWT605_Data) for HWT605_Data
    hwt101.o(i.USER_GYRO_IDLE_IRQHandler) refers to memseta.o(.text) for __aeabi_memclr4
    hwt101.o(i.USER_GYRO_IDLE_IRQHandler) refers to stm32f4xx_hal_uart.o(i.HAL_UART_Receive_DMA) for HAL_UART_Receive_DMA
    hwt101.o(i.USER_GYRO_IDLE_IRQHandler) refers to hwt101.o(.data) for .data
    hwt101.o(i.USER_GYRO_IDLE_IRQHandler) refers to usart.o(.bss) for huart3
    hwt101.o(i.USER_GYRO_IDLE_IRQHandler) refers to usart.o(.bss) for hdma_usart3_rx
    hwt101.o(i.USER_GYRO_IDLE_IRQHandler) refers to hwt101.o(.bss) for .bss
    event_groups.o(i.vEventGroupClearBitsCallback) refers to port.o(i.vPortEnterCritical) for vPortEnterCritical
    event_groups.o(i.vEventGroupClearBitsCallback) refers to port.o(i.vPortExitCritical) for vPortExitCritical
    event_groups.o(i.vEventGroupDelete) refers to tasks.o(i.vTaskSuspendAll) for vTaskSuspendAll
    event_groups.o(i.vEventGroupDelete) refers to tasks.o(i.vTaskRemoveFromUnorderedEventList) for vTaskRemoveFromUnorderedEventList
    event_groups.o(i.vEventGroupDelete) refers to heap_4.o(i.vPortFree) for vPortFree
    event_groups.o(i.vEventGroupDelete) refers to tasks.o(i.xTaskResumeAll) for xTaskResumeAll
    event_groups.o(i.vEventGroupSetBitsCallback) refers to event_groups.o(i.xEventGroupSetBits) for xEventGroupSetBits
    event_groups.o(i.xEventGroupClearBits) refers to port.o(i.vPortEnterCritical) for vPortEnterCritical
    event_groups.o(i.xEventGroupClearBits) refers to port.o(i.vPortExitCritical) for vPortExitCritical
    event_groups.o(i.xEventGroupCreate) refers to heap_4.o(i.pvPortMalloc) for pvPortMalloc
    event_groups.o(i.xEventGroupCreate) refers to list.o(i.vListInitialise) for vListInitialise
    event_groups.o(i.xEventGroupCreateStatic) refers to list.o(i.vListInitialise) for vListInitialise
    event_groups.o(i.xEventGroupSetBits) refers to tasks.o(i.vTaskSuspendAll) for vTaskSuspendAll
    event_groups.o(i.xEventGroupSetBits) refers to tasks.o(i.vTaskRemoveFromUnorderedEventList) for vTaskRemoveFromUnorderedEventList
    event_groups.o(i.xEventGroupSetBits) refers to tasks.o(i.xTaskResumeAll) for xTaskResumeAll
    event_groups.o(i.xEventGroupSync) refers to tasks.o(i.xTaskGetSchedulerState) for xTaskGetSchedulerState
    event_groups.o(i.xEventGroupSync) refers to tasks.o(i.vTaskSuspendAll) for vTaskSuspendAll
    event_groups.o(i.xEventGroupSync) refers to event_groups.o(i.xEventGroupSetBits) for xEventGroupSetBits
    event_groups.o(i.xEventGroupSync) refers to tasks.o(i.vTaskPlaceOnUnorderedEventList) for vTaskPlaceOnUnorderedEventList
    event_groups.o(i.xEventGroupSync) refers to tasks.o(i.xTaskResumeAll) for xTaskResumeAll
    event_groups.o(i.xEventGroupSync) refers to tasks.o(i.uxTaskResetEventItemValue) for uxTaskResetEventItemValue
    event_groups.o(i.xEventGroupSync) refers to port.o(i.vPortEnterCritical) for vPortEnterCritical
    event_groups.o(i.xEventGroupSync) refers to port.o(i.vPortExitCritical) for vPortExitCritical
    event_groups.o(i.xEventGroupWaitBits) refers to tasks.o(i.xTaskGetSchedulerState) for xTaskGetSchedulerState
    event_groups.o(i.xEventGroupWaitBits) refers to tasks.o(i.vTaskSuspendAll) for vTaskSuspendAll
    event_groups.o(i.xEventGroupWaitBits) refers to tasks.o(i.xTaskResumeAll) for xTaskResumeAll
    event_groups.o(i.xEventGroupWaitBits) refers to tasks.o(i.vTaskPlaceOnUnorderedEventList) for vTaskPlaceOnUnorderedEventList
    event_groups.o(i.xEventGroupWaitBits) refers to tasks.o(i.uxTaskResetEventItemValue) for uxTaskResetEventItemValue
    event_groups.o(i.xEventGroupWaitBits) refers to port.o(i.vPortEnterCritical) for vPortEnterCritical
    event_groups.o(i.xEventGroupWaitBits) refers to port.o(i.vPortExitCritical) for vPortExitCritical
    queue.o(i.pcQueueGetName) refers to queue.o(.bss) for .bss
    queue.o(i.prvUnlockQueue) refers to port.o(i.vPortEnterCritical) for vPortEnterCritical
    queue.o(i.prvUnlockQueue) refers to tasks.o(i.xTaskRemoveFromEventList) for xTaskRemoveFromEventList
    queue.o(i.prvUnlockQueue) refers to tasks.o(i.vTaskMissedYield) for vTaskMissedYield
    queue.o(i.prvUnlockQueue) refers to port.o(i.vPortExitCritical) for vPortExitCritical
    queue.o(i.uxQueueMessagesWaiting) refers to port.o(i.vPortEnterCritical) for vPortEnterCritical
    queue.o(i.uxQueueMessagesWaiting) refers to port.o(i.vPortExitCritical) for vPortExitCritical
    queue.o(i.uxQueueSpacesAvailable) refers to port.o(i.vPortEnterCritical) for vPortEnterCritical
    queue.o(i.uxQueueSpacesAvailable) refers to port.o(i.vPortExitCritical) for vPortExitCritical
    queue.o(i.vQueueAddToRegistry) refers to queue.o(.bss) for .bss
    queue.o(i.vQueueDelete) refers to heap_4.o(i.vPortFree) for vPortFree
    queue.o(i.vQueueDelete) refers to queue.o(.bss) for .bss
    queue.o(i.vQueueUnregisterQueue) refers to queue.o(.bss) for .bss
    queue.o(i.xQueueCreateMutex) refers to heap_4.o(i.pvPortMalloc) for pvPortMalloc
    queue.o(i.xQueueCreateMutex) refers to port.o(i.vPortEnterCritical) for vPortEnterCritical
    queue.o(i.xQueueCreateMutex) refers to list.o(i.vListInitialise) for vListInitialise
    queue.o(i.xQueueCreateMutex) refers to port.o(i.vPortExitCritical) for vPortExitCritical
    queue.o(i.xQueueCreateMutex) refers to queue.o(i.xQueueGenericSend) for xQueueGenericSend
    queue.o(i.xQueueCreateMutexStatic) refers to queue.o(i.xQueueGenericCreateStatic) for xQueueGenericCreateStatic
    queue.o(i.xQueueCreateMutexStatic) refers to queue.o(i.xQueueGenericSend) for xQueueGenericSend
    queue.o(i.xQueueGenericCreate) refers to heap_4.o(i.pvPortMalloc) for pvPortMalloc
    queue.o(i.xQueueGenericCreate) refers to port.o(i.vPortEnterCritical) for vPortEnterCritical
    queue.o(i.xQueueGenericCreate) refers to list.o(i.vListInitialise) for vListInitialise
    queue.o(i.xQueueGenericCreate) refers to port.o(i.vPortExitCritical) for vPortExitCritical
    queue.o(i.xQueueGenericCreateStatic) refers to port.o(i.vPortEnterCritical) for vPortEnterCritical
    queue.o(i.xQueueGenericCreateStatic) refers to list.o(i.vListInitialise) for vListInitialise
    queue.o(i.xQueueGenericCreateStatic) refers to port.o(i.vPortExitCritical) for vPortExitCritical
    queue.o(i.xQueueGenericReset) refers to port.o(i.vPortEnterCritical) for vPortEnterCritical
    queue.o(i.xQueueGenericReset) refers to list.o(i.vListInitialise) for vListInitialise
    queue.o(i.xQueueGenericReset) refers to port.o(i.vPortExitCritical) for vPortExitCritical
    queue.o(i.xQueueGenericReset) refers to tasks.o(i.xTaskRemoveFromEventList) for xTaskRemoveFromEventList
    queue.o(i.xQueueGenericSend) refers to tasks.o(i.xTaskGetSchedulerState) for xTaskGetSchedulerState
    queue.o(i.xQueueGenericSend) refers to port.o(i.vPortEnterCritical) for vPortEnterCritical
    queue.o(i.xQueueGenericSend) refers to memcpya.o(.text) for __aeabi_memcpy
    queue.o(i.xQueueGenericSend) refers to tasks.o(i.xTaskPriorityDisinherit) for xTaskPriorityDisinherit
    queue.o(i.xQueueGenericSend) refers to tasks.o(i.xTaskRemoveFromEventList) for xTaskRemoveFromEventList
    queue.o(i.xQueueGenericSend) refers to port.o(i.vPortExitCritical) for vPortExitCritical
    queue.o(i.xQueueGenericSend) refers to tasks.o(i.vTaskInternalSetTimeOutState) for vTaskInternalSetTimeOutState
    queue.o(i.xQueueGenericSend) refers to tasks.o(i.vTaskSuspendAll) for vTaskSuspendAll
    queue.o(i.xQueueGenericSend) refers to tasks.o(i.xTaskCheckForTimeOut) for xTaskCheckForTimeOut
    queue.o(i.xQueueGenericSend) refers to queue.o(i.prvUnlockQueue) for prvUnlockQueue
    queue.o(i.xQueueGenericSend) refers to tasks.o(i.xTaskResumeAll) for xTaskResumeAll
    queue.o(i.xQueueGenericSend) refers to tasks.o(i.vTaskPlaceOnEventList) for vTaskPlaceOnEventList
    queue.o(i.xQueueGenericSendFromISR) refers to port.o(i.vPortValidateInterruptPriority) for vPortValidateInterruptPriority
    queue.o(i.xQueueGenericSendFromISR) refers to memcpya.o(.text) for __aeabi_memcpy
    queue.o(i.xQueueGenericSendFromISR) refers to tasks.o(i.xTaskPriorityDisinherit) for xTaskPriorityDisinherit
    queue.o(i.xQueueGenericSendFromISR) refers to tasks.o(i.xTaskRemoveFromEventList) for xTaskRemoveFromEventList
    queue.o(i.xQueueGiveFromISR) refers to port.o(i.vPortValidateInterruptPriority) for vPortValidateInterruptPriority
    queue.o(i.xQueueGiveFromISR) refers to tasks.o(i.xTaskRemoveFromEventList) for xTaskRemoveFromEventList
    queue.o(i.xQueuePeek) refers to tasks.o(i.xTaskGetSchedulerState) for xTaskGetSchedulerState
    queue.o(i.xQueuePeek) refers to port.o(i.vPortEnterCritical) for vPortEnterCritical
    queue.o(i.xQueuePeek) refers to memcpya.o(.text) for __aeabi_memcpy
    queue.o(i.xQueuePeek) refers to tasks.o(i.xTaskRemoveFromEventList) for xTaskRemoveFromEventList
    queue.o(i.xQueuePeek) refers to port.o(i.vPortExitCritical) for vPortExitCritical
    queue.o(i.xQueuePeek) refers to tasks.o(i.vTaskInternalSetTimeOutState) for vTaskInternalSetTimeOutState
    queue.o(i.xQueuePeek) refers to tasks.o(i.vTaskSuspendAll) for vTaskSuspendAll
    queue.o(i.xQueuePeek) refers to tasks.o(i.xTaskCheckForTimeOut) for xTaskCheckForTimeOut
    queue.o(i.xQueuePeek) refers to queue.o(i.prvUnlockQueue) for prvUnlockQueue
    queue.o(i.xQueuePeek) refers to tasks.o(i.xTaskResumeAll) for xTaskResumeAll
    queue.o(i.xQueuePeek) refers to tasks.o(i.vTaskPlaceOnEventList) for vTaskPlaceOnEventList
    queue.o(i.xQueuePeekFromISR) refers to port.o(i.vPortValidateInterruptPriority) for vPortValidateInterruptPriority
    queue.o(i.xQueuePeekFromISR) refers to memcpya.o(.text) for __aeabi_memcpy
    queue.o(i.xQueueReceive) refers to tasks.o(i.xTaskGetSchedulerState) for xTaskGetSchedulerState
    queue.o(i.xQueueReceive) refers to port.o(i.vPortEnterCritical) for vPortEnterCritical
    queue.o(i.xQueueReceive) refers to memcpya.o(.text) for __aeabi_memcpy
    queue.o(i.xQueueReceive) refers to tasks.o(i.xTaskRemoveFromEventList) for xTaskRemoveFromEventList
    queue.o(i.xQueueReceive) refers to port.o(i.vPortExitCritical) for vPortExitCritical
    queue.o(i.xQueueReceive) refers to tasks.o(i.vTaskInternalSetTimeOutState) for vTaskInternalSetTimeOutState
    queue.o(i.xQueueReceive) refers to tasks.o(i.vTaskSuspendAll) for vTaskSuspendAll
    queue.o(i.xQueueReceive) refers to tasks.o(i.xTaskCheckForTimeOut) for xTaskCheckForTimeOut
    queue.o(i.xQueueReceive) refers to queue.o(i.prvUnlockQueue) for prvUnlockQueue
    queue.o(i.xQueueReceive) refers to tasks.o(i.xTaskResumeAll) for xTaskResumeAll
    queue.o(i.xQueueReceive) refers to tasks.o(i.vTaskPlaceOnEventList) for vTaskPlaceOnEventList
    queue.o(i.xQueueReceiveFromISR) refers to port.o(i.vPortValidateInterruptPriority) for vPortValidateInterruptPriority
    queue.o(i.xQueueReceiveFromISR) refers to memcpya.o(.text) for __aeabi_memcpy
    queue.o(i.xQueueReceiveFromISR) refers to tasks.o(i.xTaskRemoveFromEventList) for xTaskRemoveFromEventList
    queue.o(i.xQueueSemaphoreTake) refers to tasks.o(i.xTaskGetSchedulerState) for xTaskGetSchedulerState
    queue.o(i.xQueueSemaphoreTake) refers to port.o(i.vPortEnterCritical) for vPortEnterCritical
    queue.o(i.xQueueSemaphoreTake) refers to tasks.o(i.pvTaskIncrementMutexHeldCount) for pvTaskIncrementMutexHeldCount
    queue.o(i.xQueueSemaphoreTake) refers to tasks.o(i.xTaskRemoveFromEventList) for xTaskRemoveFromEventList
    queue.o(i.xQueueSemaphoreTake) refers to port.o(i.vPortExitCritical) for vPortExitCritical
    queue.o(i.xQueueSemaphoreTake) refers to tasks.o(i.vTaskInternalSetTimeOutState) for vTaskInternalSetTimeOutState
    queue.o(i.xQueueSemaphoreTake) refers to tasks.o(i.vTaskSuspendAll) for vTaskSuspendAll
    queue.o(i.xQueueSemaphoreTake) refers to tasks.o(i.xTaskCheckForTimeOut) for xTaskCheckForTimeOut
    queue.o(i.xQueueSemaphoreTake) refers to queue.o(i.prvUnlockQueue) for prvUnlockQueue
    queue.o(i.xQueueSemaphoreTake) refers to tasks.o(i.xTaskResumeAll) for xTaskResumeAll
    queue.o(i.xQueueSemaphoreTake) refers to tasks.o(i.xTaskPriorityInherit) for xTaskPriorityInherit
    queue.o(i.xQueueSemaphoreTake) refers to tasks.o(i.vTaskPlaceOnEventList) for vTaskPlaceOnEventList
    queue.o(i.xQueueSemaphoreTake) refers to tasks.o(i.vTaskPriorityDisinheritAfterTimeout) for vTaskPriorityDisinheritAfterTimeout
    stream_buffer.o(i.prvReadBytesFromBuffer) refers to memcpya.o(.text) for __aeabi_memcpy
    stream_buffer.o(i.prvWriteMessageToBuffer) refers to memcpya.o(.text) for __aeabi_memcpy
    stream_buffer.o(i.vStreamBufferDelete) refers to heap_4.o(i.vPortFree) for vPortFree
    stream_buffer.o(i.xStreamBufferGenericCreate) refers to heap_4.o(i.pvPortMalloc) for pvPortMalloc
    stream_buffer.o(i.xStreamBufferGenericCreate) refers to memseta.o(.text) for memset
    stream_buffer.o(i.xStreamBufferGenericCreateStatic) refers to memseta.o(.text) for memset
    stream_buffer.o(i.xStreamBufferNextMessageLengthBytes) refers to stream_buffer.o(i.prvReadBytesFromBuffer) for prvReadBytesFromBuffer
    stream_buffer.o(i.xStreamBufferReceive) refers to port.o(i.vPortEnterCritical) for vPortEnterCritical
    stream_buffer.o(i.xStreamBufferReceive) refers to tasks.o(i.xTaskNotifyStateClear) for xTaskNotifyStateClear
    stream_buffer.o(i.xStreamBufferReceive) refers to tasks.o(i.xTaskGetCurrentTaskHandle) for xTaskGetCurrentTaskHandle
    stream_buffer.o(i.xStreamBufferReceive) refers to port.o(i.vPortExitCritical) for vPortExitCritical
    stream_buffer.o(i.xStreamBufferReceive) refers to tasks.o(i.xTaskNotifyWait) for xTaskNotifyWait
    stream_buffer.o(i.xStreamBufferReceive) refers to stream_buffer.o(i.prvReadBytesFromBuffer) for prvReadBytesFromBuffer
    stream_buffer.o(i.xStreamBufferReceive) refers to tasks.o(i.vTaskSuspendAll) for vTaskSuspendAll
    stream_buffer.o(i.xStreamBufferReceive) refers to tasks.o(i.xTaskGenericNotify) for xTaskGenericNotify
    stream_buffer.o(i.xStreamBufferReceive) refers to tasks.o(i.xTaskResumeAll) for xTaskResumeAll
    stream_buffer.o(i.xStreamBufferReceiveCompletedFromISR) refers to tasks.o(i.xTaskGenericNotifyFromISR) for xTaskGenericNotifyFromISR
    stream_buffer.o(i.xStreamBufferReceiveFromISR) refers to stream_buffer.o(i.prvReadBytesFromBuffer) for prvReadBytesFromBuffer
    stream_buffer.o(i.xStreamBufferReceiveFromISR) refers to tasks.o(i.xTaskGenericNotifyFromISR) for xTaskGenericNotifyFromISR
    stream_buffer.o(i.xStreamBufferReset) refers to port.o(i.vPortEnterCritical) for vPortEnterCritical
    stream_buffer.o(i.xStreamBufferReset) refers to memseta.o(.text) for memset
    stream_buffer.o(i.xStreamBufferReset) refers to port.o(i.vPortExitCritical) for vPortExitCritical
    stream_buffer.o(i.xStreamBufferSend) refers to tasks.o(i.vTaskSetTimeOutState) for vTaskSetTimeOutState
    stream_buffer.o(i.xStreamBufferSend) refers to port.o(i.vPortEnterCritical) for vPortEnterCritical
    stream_buffer.o(i.xStreamBufferSend) refers to tasks.o(i.xTaskNotifyStateClear) for xTaskNotifyStateClear
    stream_buffer.o(i.xStreamBufferSend) refers to tasks.o(i.xTaskGetCurrentTaskHandle) for xTaskGetCurrentTaskHandle
    stream_buffer.o(i.xStreamBufferSend) refers to port.o(i.vPortExitCritical) for vPortExitCritical
    stream_buffer.o(i.xStreamBufferSend) refers to tasks.o(i.xTaskNotifyWait) for xTaskNotifyWait
    stream_buffer.o(i.xStreamBufferSend) refers to tasks.o(i.xTaskCheckForTimeOut) for xTaskCheckForTimeOut
    stream_buffer.o(i.xStreamBufferSend) refers to stream_buffer.o(i.prvWriteMessageToBuffer) for prvWriteMessageToBuffer
    stream_buffer.o(i.xStreamBufferSend) refers to tasks.o(i.vTaskSuspendAll) for vTaskSuspendAll
    stream_buffer.o(i.xStreamBufferSend) refers to tasks.o(i.xTaskGenericNotify) for xTaskGenericNotify
    stream_buffer.o(i.xStreamBufferSend) refers to tasks.o(i.xTaskResumeAll) for xTaskResumeAll
    stream_buffer.o(i.xStreamBufferSendCompletedFromISR) refers to tasks.o(i.xTaskGenericNotifyFromISR) for xTaskGenericNotifyFromISR
    stream_buffer.o(i.xStreamBufferSendFromISR) refers to stream_buffer.o(i.prvWriteMessageToBuffer) for prvWriteMessageToBuffer
    stream_buffer.o(i.xStreamBufferSendFromISR) refers to tasks.o(i.xTaskGenericNotifyFromISR) for xTaskGenericNotifyFromISR
    tasks.o(i.pcTaskGetName) refers to tasks.o(.data) for .data
    tasks.o(i.prvAddCurrentTaskToDelayedList) refers to list.o(i.uxListRemove) for uxListRemove
    tasks.o(i.prvAddCurrentTaskToDelayedList) refers to list.o(i.vListInsertEnd) for vListInsertEnd
    tasks.o(i.prvAddCurrentTaskToDelayedList) refers to list.o(i.vListInsert) for vListInsert
    tasks.o(i.prvAddCurrentTaskToDelayedList) refers to tasks.o(.data) for .data
    tasks.o(i.prvAddCurrentTaskToDelayedList) refers to tasks.o(.bss) for .bss
    tasks.o(i.prvAddNewTaskToReadyList) refers to port.o(i.vPortEnterCritical) for vPortEnterCritical
    tasks.o(i.prvAddNewTaskToReadyList) refers to list.o(i.vListInitialise) for vListInitialise
    tasks.o(i.prvAddNewTaskToReadyList) refers to list.o(i.vListInsertEnd) for vListInsertEnd
    tasks.o(i.prvAddNewTaskToReadyList) refers to port.o(i.vPortExitCritical) for vPortExitCritical
    tasks.o(i.prvAddNewTaskToReadyList) refers to tasks.o(.data) for .data
    tasks.o(i.prvAddNewTaskToReadyList) refers to tasks.o(.bss) for .bss
    tasks.o(i.prvIdleTask) refers to port.o(i.vPortEnterCritical) for vPortEnterCritical
    tasks.o(i.prvIdleTask) refers to list.o(i.uxListRemove) for uxListRemove
    tasks.o(i.prvIdleTask) refers to port.o(i.vPortExitCritical) for vPortExitCritical
    tasks.o(i.prvIdleTask) refers to heap_4.o(i.vPortFree) for vPortFree
    tasks.o(i.prvIdleTask) refers to tasks.o(.bss) for .bss
    tasks.o(i.prvIdleTask) refers to tasks.o(.data) for .data
    tasks.o(i.pvTaskIncrementMutexHeldCount) refers to tasks.o(.data) for .data
    tasks.o(i.ulTaskNotifyTake) refers to port.o(i.vPortEnterCritical) for vPortEnterCritical
    tasks.o(i.ulTaskNotifyTake) refers to tasks.o(i.prvAddCurrentTaskToDelayedList) for prvAddCurrentTaskToDelayedList
    tasks.o(i.ulTaskNotifyTake) refers to port.o(i.vPortExitCritical) for vPortExitCritical
    tasks.o(i.ulTaskNotifyTake) refers to tasks.o(.data) for .data
    tasks.o(i.ulTaskNotifyValueClear) refers to port.o(i.vPortEnterCritical) for vPortEnterCritical
    tasks.o(i.ulTaskNotifyValueClear) refers to port.o(i.vPortExitCritical) for vPortExitCritical
    tasks.o(i.ulTaskNotifyValueClear) refers to tasks.o(.data) for .data
    tasks.o(i.uxTaskGetNumberOfTasks) refers to tasks.o(.data) for .data
    tasks.o(i.uxTaskPriorityGet) refers to port.o(i.vPortEnterCritical) for vPortEnterCritical
    tasks.o(i.uxTaskPriorityGet) refers to port.o(i.vPortExitCritical) for vPortExitCritical
    tasks.o(i.uxTaskPriorityGet) refers to tasks.o(.data) for .data
    tasks.o(i.uxTaskPriorityGetFromISR) refers to port.o(i.vPortValidateInterruptPriority) for vPortValidateInterruptPriority
    tasks.o(i.uxTaskPriorityGetFromISR) refers to tasks.o(.data) for .data
    tasks.o(i.uxTaskResetEventItemValue) refers to tasks.o(.data) for .data
    tasks.o(i.vTaskDelay) refers to tasks.o(i.prvAddCurrentTaskToDelayedList) for prvAddCurrentTaskToDelayedList
    tasks.o(i.vTaskDelay) refers to tasks.o(i.xTaskResumeAll) for xTaskResumeAll
    tasks.o(i.vTaskDelay) refers to tasks.o(.data) for .data
    tasks.o(i.vTaskDelete) refers to port.o(i.vPortEnterCritical) for vPortEnterCritical
    tasks.o(i.vTaskDelete) refers to list.o(i.uxListRemove) for uxListRemove
    tasks.o(i.vTaskDelete) refers to list.o(i.vListInsertEnd) for vListInsertEnd
    tasks.o(i.vTaskDelete) refers to port.o(i.vPortExitCritical) for vPortExitCritical
    tasks.o(i.vTaskDelete) refers to heap_4.o(i.vPortFree) for vPortFree
    tasks.o(i.vTaskDelete) refers to tasks.o(.data) for .data
    tasks.o(i.vTaskDelete) refers to tasks.o(.bss) for .bss
    tasks.o(i.vTaskEndScheduler) refers to port.o(i.vPortEndScheduler) for vPortEndScheduler
    tasks.o(i.vTaskEndScheduler) refers to tasks.o(.data) for .data
    tasks.o(i.vTaskInternalSetTimeOutState) refers to tasks.o(.data) for .data
    tasks.o(i.vTaskMissedYield) refers to tasks.o(.data) for .data
    tasks.o(i.vTaskNotifyGiveFromISR) refers to port.o(i.vPortValidateInterruptPriority) for vPortValidateInterruptPriority
    tasks.o(i.vTaskNotifyGiveFromISR) refers to list.o(i.vListInsertEnd) for vListInsertEnd
    tasks.o(i.vTaskNotifyGiveFromISR) refers to list.o(i.uxListRemove) for uxListRemove
    tasks.o(i.vTaskNotifyGiveFromISR) refers to tasks.o(.data) for .data
    tasks.o(i.vTaskNotifyGiveFromISR) refers to tasks.o(.bss) for .bss
    tasks.o(i.vTaskPlaceOnEventList) refers to list.o(i.vListInsert) for vListInsert
    tasks.o(i.vTaskPlaceOnEventList) refers to tasks.o(i.prvAddCurrentTaskToDelayedList) for prvAddCurrentTaskToDelayedList
    tasks.o(i.vTaskPlaceOnEventList) refers to tasks.o(.data) for .data
    tasks.o(i.vTaskPlaceOnUnorderedEventList) refers to list.o(i.vListInsertEnd) for vListInsertEnd
    tasks.o(i.vTaskPlaceOnUnorderedEventList) refers to tasks.o(i.prvAddCurrentTaskToDelayedList) for prvAddCurrentTaskToDelayedList
    tasks.o(i.vTaskPlaceOnUnorderedEventList) refers to tasks.o(.data) for .data
    tasks.o(i.vTaskPriorityDisinheritAfterTimeout) refers to list.o(i.uxListRemove) for uxListRemove
    tasks.o(i.vTaskPriorityDisinheritAfterTimeout) refers to list.o(i.vListInsertEnd) for vListInsertEnd
    tasks.o(i.vTaskPriorityDisinheritAfterTimeout) refers to tasks.o(.data) for .data
    tasks.o(i.vTaskPriorityDisinheritAfterTimeout) refers to tasks.o(.bss) for .bss
    tasks.o(i.vTaskPrioritySet) refers to port.o(i.vPortEnterCritical) for vPortEnterCritical
    tasks.o(i.vTaskPrioritySet) refers to list.o(i.uxListRemove) for uxListRemove
    tasks.o(i.vTaskPrioritySet) refers to list.o(i.vListInsertEnd) for vListInsertEnd
    tasks.o(i.vTaskPrioritySet) refers to port.o(i.vPortExitCritical) for vPortExitCritical
    tasks.o(i.vTaskPrioritySet) refers to tasks.o(.data) for .data
    tasks.o(i.vTaskPrioritySet) refers to tasks.o(.bss) for .bss
    tasks.o(i.vTaskRemoveFromUnorderedEventList) refers to list.o(i.uxListRemove) for uxListRemove
    tasks.o(i.vTaskRemoveFromUnorderedEventList) refers to list.o(i.vListInsertEnd) for vListInsertEnd
    tasks.o(i.vTaskRemoveFromUnorderedEventList) refers to tasks.o(.data) for .data
    tasks.o(i.vTaskRemoveFromUnorderedEventList) refers to tasks.o(.bss) for .bss
    tasks.o(i.vTaskResume) refers to port.o(i.vPortEnterCritical) for vPortEnterCritical
    tasks.o(i.vTaskResume) refers to list.o(i.uxListRemove) for uxListRemove
    tasks.o(i.vTaskResume) refers to list.o(i.vListInsertEnd) for vListInsertEnd
    tasks.o(i.vTaskResume) refers to port.o(i.vPortExitCritical) for vPortExitCritical
    tasks.o(i.vTaskResume) refers to tasks.o(.data) for .data
    tasks.o(i.vTaskResume) refers to tasks.o(.bss) for .bss
    tasks.o(i.vTaskSetTimeOutState) refers to port.o(i.vPortEnterCritical) for vPortEnterCritical
    tasks.o(i.vTaskSetTimeOutState) refers to port.o(i.vPortExitCritical) for vPortExitCritical
    tasks.o(i.vTaskSetTimeOutState) refers to tasks.o(.data) for .data
    tasks.o(i.vTaskStartScheduler) refers to freertos.o(i.vApplicationGetIdleTaskMemory) for vApplicationGetIdleTaskMemory
    tasks.o(i.vTaskStartScheduler) refers to tasks.o(i.xTaskCreateStatic) for xTaskCreateStatic
    tasks.o(i.vTaskStartScheduler) refers to port.o(i.xPortStartScheduler) for xPortStartScheduler
    tasks.o(i.vTaskStartScheduler) refers to tasks.o(i.prvIdleTask) for prvIdleTask
    tasks.o(i.vTaskStartScheduler) refers to tasks.o(.data) for .data
    tasks.o(i.vTaskSuspend) refers to port.o(i.vPortEnterCritical) for vPortEnterCritical
    tasks.o(i.vTaskSuspend) refers to list.o(i.uxListRemove) for uxListRemove
    tasks.o(i.vTaskSuspend) refers to list.o(i.vListInsertEnd) for vListInsertEnd
    tasks.o(i.vTaskSuspend) refers to port.o(i.vPortExitCritical) for vPortExitCritical
    tasks.o(i.vTaskSuspend) refers to tasks.o(.data) for .data
    tasks.o(i.vTaskSuspend) refers to tasks.o(.bss) for .bss
    tasks.o(i.vTaskSuspendAll) refers to tasks.o(.data) for .data
    tasks.o(i.vTaskSwitchContext) refers to tasks.o(.data) for .data
    tasks.o(i.vTaskSwitchContext) refers to tasks.o(.bss) for .bss
    tasks.o(i.xTaskCatchUpTicks) refers to tasks.o(i.xTaskResumeAll) for xTaskResumeAll
    tasks.o(i.xTaskCatchUpTicks) refers to tasks.o(.data) for .data
    tasks.o(i.xTaskCheckForTimeOut) refers to port.o(i.vPortEnterCritical) for vPortEnterCritical
    tasks.o(i.xTaskCheckForTimeOut) refers to port.o(i.vPortExitCritical) for vPortExitCritical
    tasks.o(i.xTaskCheckForTimeOut) refers to tasks.o(.data) for .data
    tasks.o(i.xTaskCreate) refers to heap_4.o(i.pvPortMalloc) for pvPortMalloc
    tasks.o(i.xTaskCreate) refers to list.o(i.vListInitialiseItem) for vListInitialiseItem
    tasks.o(i.xTaskCreate) refers to port.o(i.pxPortInitialiseStack) for pxPortInitialiseStack
    tasks.o(i.xTaskCreate) refers to tasks.o(i.prvAddNewTaskToReadyList) for prvAddNewTaskToReadyList
    tasks.o(i.xTaskCreate) refers to heap_4.o(i.vPortFree) for vPortFree
    tasks.o(i.xTaskCreateStatic) refers to list.o(i.vListInitialiseItem) for vListInitialiseItem
    tasks.o(i.xTaskCreateStatic) refers to port.o(i.pxPortInitialiseStack) for pxPortInitialiseStack
    tasks.o(i.xTaskCreateStatic) refers to tasks.o(i.prvAddNewTaskToReadyList) for prvAddNewTaskToReadyList
    tasks.o(i.xTaskGenericNotify) refers to port.o(i.vPortEnterCritical) for vPortEnterCritical
    tasks.o(i.xTaskGenericNotify) refers to list.o(i.uxListRemove) for uxListRemove
    tasks.o(i.xTaskGenericNotify) refers to list.o(i.vListInsertEnd) for vListInsertEnd
    tasks.o(i.xTaskGenericNotify) refers to port.o(i.vPortExitCritical) for vPortExitCritical
    tasks.o(i.xTaskGenericNotify) refers to tasks.o(.data) for .data
    tasks.o(i.xTaskGenericNotify) refers to tasks.o(.bss) for .bss
    tasks.o(i.xTaskGenericNotifyFromISR) refers to port.o(i.vPortValidateInterruptPriority) for vPortValidateInterruptPriority
    tasks.o(i.xTaskGenericNotifyFromISR) refers to list.o(i.vListInsertEnd) for vListInsertEnd
    tasks.o(i.xTaskGenericNotifyFromISR) refers to list.o(i.uxListRemove) for uxListRemove
    tasks.o(i.xTaskGenericNotifyFromISR) refers to tasks.o(.data) for .data
    tasks.o(i.xTaskGenericNotifyFromISR) refers to tasks.o(.bss) for .bss
    tasks.o(i.xTaskGetCurrentTaskHandle) refers to tasks.o(.data) for .data
    tasks.o(i.xTaskGetSchedulerState) refers to tasks.o(.data) for .data
    tasks.o(i.xTaskGetTickCount) refers to tasks.o(.data) for .data
    tasks.o(i.xTaskGetTickCountFromISR) refers to port.o(i.vPortValidateInterruptPriority) for vPortValidateInterruptPriority
    tasks.o(i.xTaskGetTickCountFromISR) refers to tasks.o(.data) for .data
    tasks.o(i.xTaskIncrementTick) refers to list.o(i.uxListRemove) for uxListRemove
    tasks.o(i.xTaskIncrementTick) refers to list.o(i.vListInsertEnd) for vListInsertEnd
    tasks.o(i.xTaskIncrementTick) refers to tasks.o(.data) for .data
    tasks.o(i.xTaskIncrementTick) refers to tasks.o(.bss) for .bss
    tasks.o(i.xTaskNotifyStateClear) refers to port.o(i.vPortEnterCritical) for vPortEnterCritical
    tasks.o(i.xTaskNotifyStateClear) refers to port.o(i.vPortExitCritical) for vPortExitCritical
    tasks.o(i.xTaskNotifyStateClear) refers to tasks.o(.data) for .data
    tasks.o(i.xTaskNotifyWait) refers to port.o(i.vPortEnterCritical) for vPortEnterCritical
    tasks.o(i.xTaskNotifyWait) refers to tasks.o(i.prvAddCurrentTaskToDelayedList) for prvAddCurrentTaskToDelayedList
    tasks.o(i.xTaskNotifyWait) refers to port.o(i.vPortExitCritical) for vPortExitCritical
    tasks.o(i.xTaskNotifyWait) refers to tasks.o(.data) for .data
    tasks.o(i.xTaskPriorityDisinherit) refers to list.o(i.uxListRemove) for uxListRemove
    tasks.o(i.xTaskPriorityDisinherit) refers to list.o(i.vListInsertEnd) for vListInsertEnd
    tasks.o(i.xTaskPriorityDisinherit) refers to tasks.o(.data) for .data
    tasks.o(i.xTaskPriorityDisinherit) refers to tasks.o(.bss) for .bss
    tasks.o(i.xTaskPriorityInherit) refers to list.o(i.uxListRemove) for uxListRemove
    tasks.o(i.xTaskPriorityInherit) refers to list.o(i.vListInsertEnd) for vListInsertEnd
    tasks.o(i.xTaskPriorityInherit) refers to tasks.o(.data) for .data
    tasks.o(i.xTaskPriorityInherit) refers to tasks.o(.bss) for .bss
    tasks.o(i.xTaskRemoveFromEventList) refers to list.o(i.uxListRemove) for uxListRemove
    tasks.o(i.xTaskRemoveFromEventList) refers to list.o(i.vListInsertEnd) for vListInsertEnd
    tasks.o(i.xTaskRemoveFromEventList) refers to tasks.o(.data) for .data
    tasks.o(i.xTaskRemoveFromEventList) refers to tasks.o(.bss) for .bss
    tasks.o(i.xTaskResumeAll) refers to port.o(i.vPortEnterCritical) for vPortEnterCritical
    tasks.o(i.xTaskResumeAll) refers to list.o(i.uxListRemove) for uxListRemove
    tasks.o(i.xTaskResumeAll) refers to list.o(i.vListInsertEnd) for vListInsertEnd
    tasks.o(i.xTaskResumeAll) refers to port.o(i.vPortExitCritical) for vPortExitCritical
    tasks.o(i.xTaskResumeAll) refers to tasks.o(.data) for .data
    tasks.o(i.xTaskResumeAll) refers to tasks.o(.bss) for .bss
    tasks.o(i.xTaskResumeFromISR) refers to port.o(i.vPortValidateInterruptPriority) for vPortValidateInterruptPriority
    tasks.o(i.xTaskResumeFromISR) refers to list.o(i.uxListRemove) for uxListRemove
    tasks.o(i.xTaskResumeFromISR) refers to list.o(i.vListInsertEnd) for vListInsertEnd
    tasks.o(i.xTaskResumeFromISR) refers to tasks.o(.bss) for .bss
    tasks.o(i.xTaskResumeFromISR) refers to tasks.o(.data) for .data
    heap_4.o(i.pvPortMalloc) refers to tasks.o(i.vTaskSuspendAll) for vTaskSuspendAll
    heap_4.o(i.pvPortMalloc) refers to tasks.o(i.xTaskResumeAll) for xTaskResumeAll
    heap_4.o(i.pvPortMalloc) refers to heap_4.o(.data) for .data
    heap_4.o(i.pvPortMalloc) refers to heap_4.o(.bss) for .bss
    heap_4.o(i.vPortFree) refers to tasks.o(i.vTaskSuspendAll) for vTaskSuspendAll
    heap_4.o(i.vPortFree) refers to tasks.o(i.xTaskResumeAll) for xTaskResumeAll
    heap_4.o(i.vPortFree) refers to heap_4.o(.data) for .data
    heap_4.o(i.vPortGetHeapStats) refers to tasks.o(i.vTaskSuspendAll) for vTaskSuspendAll
    heap_4.o(i.vPortGetHeapStats) refers to tasks.o(i.xTaskResumeAll) for xTaskResumeAll
    heap_4.o(i.vPortGetHeapStats) refers to port.o(i.vPortEnterCritical) for vPortEnterCritical
    heap_4.o(i.vPortGetHeapStats) refers to port.o(i.vPortExitCritical) for vPortExitCritical
    heap_4.o(i.vPortGetHeapStats) refers to heap_4.o(.data) for .data
    heap_4.o(i.xPortGetFreeHeapSize) refers to heap_4.o(.data) for .data
    heap_4.o(i.xPortGetMinimumEverFreeHeapSize) refers to heap_4.o(.data) for .data
    port.o(.emb_text) refers to tasks.o(i.vTaskSwitchContext) for vTaskSwitchContext
    port.o(.emb_text) refers to tasks.o(.data) for pxCurrentTCB
    port.o(i.prvTaskExitError) refers to port.o(.data) for .data
    port.o(i.pxPortInitialiseStack) refers to port.o(i.prvTaskExitError) for prvTaskExitError
    port.o(i.vPortEndScheduler) refers to port.o(.data) for .data
    port.o(i.vPortEnterCritical) refers to port.o(.data) for .data
    port.o(i.vPortExitCritical) refers to port.o(.data) for .data
    port.o(i.vPortSetupTimerInterrupt) refers to system_stm32f4xx.o(.data) for SystemCoreClock
    port.o(i.vPortValidateInterruptPriority) refers to port.o(.emb_text) for vPortGetIPSR
    port.o(i.vPortValidateInterruptPriority) refers to port.o(.data) for .data
    port.o(i.xPortStartScheduler) refers to port.o(i.vPortSetupTimerInterrupt) for vPortSetupTimerInterrupt
    port.o(i.xPortStartScheduler) refers to port.o(.emb_text) for __asm___6_port_c_39a90d8d__prvEnableVFP
    port.o(i.xPortStartScheduler) refers to port.o(.data) for .data
    port.o(i.xPortSysTickHandler) refers to tasks.o(i.xTaskIncrementTick) for xTaskIncrementTick
    cmsis_os.o(i.osDelay) refers to tasks.o(i.vTaskDelay) for vTaskDelay
    cmsis_os.o(i.osKernelRunning) refers to tasks.o(i.xTaskGetSchedulerState) for xTaskGetSchedulerState
    cmsis_os.o(i.osKernelStart) refers to tasks.o(i.vTaskStartScheduler) for vTaskStartScheduler
    cmsis_os.o(i.osKernelSysTick) refers to tasks.o(i.xTaskGetTickCountFromISR) for xTaskGetTickCountFromISR
    cmsis_os.o(i.osKernelSysTick) refers to tasks.o(i.xTaskGetTickCount) for xTaskGetTickCount
    cmsis_os.o(i.osMailAlloc) refers to port.o(i.vPortEnterCritical) for vPortEnterCritical
    cmsis_os.o(i.osMailAlloc) refers to port.o(i.vPortExitCritical) for vPortExitCritical
    cmsis_os.o(i.osMailCAlloc) refers to port.o(i.vPortEnterCritical) for vPortEnterCritical
    cmsis_os.o(i.osMailCAlloc) refers to port.o(i.vPortExitCritical) for vPortExitCritical
    cmsis_os.o(i.osMailCreate) refers to heap_4.o(i.pvPortMalloc) for pvPortMalloc
    cmsis_os.o(i.osMailCreate) refers to queue.o(i.xQueueGenericCreate) for xQueueGenericCreate
    cmsis_os.o(i.osMailCreate) refers to heap_4.o(i.vPortFree) for vPortFree
    cmsis_os.o(i.osMailGet) refers to queue.o(i.xQueueReceiveFromISR) for xQueueReceiveFromISR
    cmsis_os.o(i.osMailGet) refers to queue.o(i.xQueueReceive) for xQueueReceive
    cmsis_os.o(i.osMailPut) refers to queue.o(i.xQueueGenericSendFromISR) for xQueueGenericSendFromISR
    cmsis_os.o(i.osMailPut) refers to queue.o(i.xQueueGenericSend) for xQueueGenericSend
    cmsis_os.o(i.osMessageAvailableSpace) refers to queue.o(i.uxQueueSpacesAvailable) for uxQueueSpacesAvailable
    cmsis_os.o(i.osMessageCreate) refers to queue.o(i.xQueueGenericCreateStatic) for xQueueGenericCreateStatic
    cmsis_os.o(i.osMessageCreate) refers to queue.o(i.xQueueGenericCreate) for xQueueGenericCreate
    cmsis_os.o(i.osMessageDelete) refers to queue.o(i.vQueueDelete) for vQueueDelete
    cmsis_os.o(i.osMessageGet) refers to queue.o(i.xQueueReceiveFromISR) for xQueueReceiveFromISR
    cmsis_os.o(i.osMessageGet) refers to queue.o(i.xQueueReceive) for xQueueReceive
    cmsis_os.o(i.osMessagePeek) refers to queue.o(i.xQueuePeek) for xQueuePeek
    cmsis_os.o(i.osMessagePut) refers to queue.o(i.xQueueGenericSendFromISR) for xQueueGenericSendFromISR
    cmsis_os.o(i.osMessagePut) refers to queue.o(i.xQueueGenericSend) for xQueueGenericSend
    cmsis_os.o(i.osMessageWaiting) refers to queue.o(i.uxQueueMessagesWaitingFromISR) for uxQueueMessagesWaitingFromISR
    cmsis_os.o(i.osMessageWaiting) refers to queue.o(i.uxQueueMessagesWaiting) for uxQueueMessagesWaiting
    cmsis_os.o(i.osMutexCreate) refers to queue.o(i.xQueueCreateMutexStatic) for xQueueCreateMutexStatic
    cmsis_os.o(i.osMutexCreate) refers to queue.o(i.xQueueCreateMutex) for xQueueCreateMutex
    cmsis_os.o(i.osMutexDelete) refers to queue.o(i.vQueueDelete) for vQueueDelete
    cmsis_os.o(i.osMutexRelease) refers to queue.o(i.xQueueGiveFromISR) for xQueueGiveFromISR
    cmsis_os.o(i.osMutexRelease) refers to queue.o(i.xQueueGenericSend) for xQueueGenericSend
    cmsis_os.o(i.osMutexWait) refers to queue.o(i.xQueueReceiveFromISR) for xQueueReceiveFromISR
    cmsis_os.o(i.osMutexWait) refers to queue.o(i.xQueueSemaphoreTake) for xQueueSemaphoreTake
    cmsis_os.o(i.osPoolAlloc) refers to port.o(i.vPortEnterCritical) for vPortEnterCritical
    cmsis_os.o(i.osPoolAlloc) refers to port.o(i.vPortExitCritical) for vPortExitCritical
    cmsis_os.o(i.osPoolCAlloc) refers to port.o(i.vPortEnterCritical) for vPortEnterCritical
    cmsis_os.o(i.osPoolCAlloc) refers to port.o(i.vPortExitCritical) for vPortExitCritical
    cmsis_os.o(i.osPoolCreate) refers to heap_4.o(i.pvPortMalloc) for pvPortMalloc
    cmsis_os.o(i.osPoolCreate) refers to heap_4.o(i.vPortFree) for vPortFree
    cmsis_os.o(i.osSemaphoreCreate) refers to queue.o(i.xQueueGenericCreateStatic) for xQueueGenericCreateStatic
    cmsis_os.o(i.osSemaphoreCreate) refers to queue.o(i.xQueueGenericCreate) for xQueueGenericCreate
    cmsis_os.o(i.osSemaphoreCreate) refers to queue.o(i.xQueueGenericSend) for xQueueGenericSend
    cmsis_os.o(i.osSemaphoreDelete) refers to queue.o(i.vQueueDelete) for vQueueDelete
    cmsis_os.o(i.osSemaphoreGetCount) refers to queue.o(i.uxQueueMessagesWaiting) for uxQueueMessagesWaiting
    cmsis_os.o(i.osSemaphoreRelease) refers to queue.o(i.xQueueGiveFromISR) for xQueueGiveFromISR
    cmsis_os.o(i.osSemaphoreRelease) refers to queue.o(i.xQueueGenericSend) for xQueueGenericSend
    cmsis_os.o(i.osSemaphoreWait) refers to queue.o(i.xQueueReceiveFromISR) for xQueueReceiveFromISR
    cmsis_os.o(i.osSemaphoreWait) refers to queue.o(i.xQueueSemaphoreTake) for xQueueSemaphoreTake
    cmsis_os.o(i.osSignalSet) refers to tasks.o(i.xTaskGenericNotifyFromISR) for xTaskGenericNotifyFromISR
    cmsis_os.o(i.osSignalSet) refers to tasks.o(i.xTaskGenericNotify) for xTaskGenericNotify
    cmsis_os.o(i.osSignalWait) refers to tasks.o(i.xTaskNotifyWait) for xTaskNotifyWait
    cmsis_os.o(i.osSystickHandler) refers to tasks.o(i.xTaskGetSchedulerState) for xTaskGetSchedulerState
    cmsis_os.o(i.osSystickHandler) refers to port.o(i.xPortSysTickHandler) for xPortSysTickHandler
    cmsis_os.o(i.osThreadCreate) refers to tasks.o(i.xTaskCreateStatic) for xTaskCreateStatic
    cmsis_os.o(i.osThreadCreate) refers to tasks.o(i.xTaskCreate) for xTaskCreate
    cmsis_os.o(i.osThreadGetId) refers to tasks.o(i.xTaskGetCurrentTaskHandle) for xTaskGetCurrentTaskHandle
    cmsis_os.o(i.osThreadGetPriority) refers to tasks.o(i.uxTaskPriorityGetFromISR) for uxTaskPriorityGetFromISR
    cmsis_os.o(i.osThreadGetPriority) refers to tasks.o(i.uxTaskPriorityGet) for uxTaskPriorityGet
    cmsis_os.o(i.osThreadResume) refers to tasks.o(i.xTaskResumeFromISR) for xTaskResumeFromISR
    cmsis_os.o(i.osThreadResume) refers to tasks.o(i.vTaskResume) for vTaskResume
    cmsis_os.o(i.osThreadResumeAll) refers to tasks.o(i.xTaskResumeAll) for xTaskResumeAll
    cmsis_os.o(i.osThreadSetPriority) refers to tasks.o(i.vTaskPrioritySet) for vTaskPrioritySet
    cmsis_os.o(i.osThreadSuspend) refers to tasks.o(i.vTaskSuspend) for vTaskSuspend
    cmsis_os.o(i.osThreadSuspendAll) refers to tasks.o(i.vTaskSuspendAll) for vTaskSuspendAll
    cmsis_os.o(i.osThreadTerminate) refers to tasks.o(i.vTaskDelete) for vTaskDelete
    atan.o(i.__hardfp_atan) refers (Special) to iusefp.o(.text) for __I$use$fp
    atan.o(i.__hardfp_atan) refers to dunder.o(i.__mathlib_dbl_infnan) for __mathlib_dbl_infnan
    atan.o(i.__hardfp_atan) refers to fpclassify.o(i.__ARM_fpclassify) for __ARM_fpclassify
    atan.o(i.__hardfp_atan) refers to dunder.o(i.__mathlib_dbl_underflow) for __mathlib_dbl_underflow
    atan.o(i.__hardfp_atan) refers to fabs.o(i.fabs) for fabs
    atan.o(i.__hardfp_atan) refers to dadd.o(.text) for __aeabi_dadd
    atan.o(i.__hardfp_atan) refers to dmul.o(.text) for __aeabi_dmul
    atan.o(i.__hardfp_atan) refers to ddiv.o(.text) for __aeabi_ddiv
    atan.o(i.__hardfp_atan) refers to poly.o(i.__kernel_poly) for __kernel_poly
    atan.o(i.__hardfp_atan) refers to atan.o(.constdata) for .constdata
    atan.o(i.__softfp_atan) refers (Special) to iusefp.o(.text) for __I$use$fp
    atan.o(i.__softfp_atan) refers to atan.o(i.__hardfp_atan) for __hardfp_atan
    atan.o(i.atan) refers (Special) to iusefp.o(.text) for __I$use$fp
    atan.o(i.atan) refers to atan.o(i.__hardfp_atan) for __hardfp_atan
    atan.o(.constdata) refers (Special) to iusefp.o(.text) for __I$use$fp
    atan_x.o(i.____hardfp_atan$lsc) refers (Special) to iusefp.o(.text) for __I$use$fp
    atan_x.o(i.____hardfp_atan$lsc) refers to dunder.o(i.__mathlib_dbl_infnan) for __mathlib_dbl_infnan
    atan_x.o(i.____hardfp_atan$lsc) refers to fabs.o(i.fabs) for fabs
    atan_x.o(i.____hardfp_atan$lsc) refers to dadd.o(.text) for __aeabi_dadd
    atan_x.o(i.____hardfp_atan$lsc) refers to dmul.o(.text) for __aeabi_dmul
    atan_x.o(i.____hardfp_atan$lsc) refers to ddiv.o(.text) for __aeabi_ddiv
    atan_x.o(i.____hardfp_atan$lsc) refers to poly.o(i.__kernel_poly) for __kernel_poly
    atan_x.o(i.____hardfp_atan$lsc) refers to atan_x.o(.constdata) for .constdata
    atan_x.o(i.____softfp_atan$lsc) refers (Special) to iusefp.o(.text) for __I$use$fp
    atan_x.o(i.____softfp_atan$lsc) refers to atan_x.o(i.____hardfp_atan$lsc) for ____hardfp_atan$lsc
    atan_x.o(i.__atan$lsc) refers (Special) to iusefp.o(.text) for __I$use$fp
    atan_x.o(i.__atan$lsc) refers to atan_x.o(i.____hardfp_atan$lsc) for ____hardfp_atan$lsc
    atan_x.o(.constdata) refers (Special) to iusefp.o(.text) for __I$use$fp
    atan2.o(i.__hardfp_atan2) refers (Special) to iusefp.o(.text) for __I$use$fp
    atan2.o(i.__hardfp_atan2) refers to dunder.o(i.__mathlib_dbl_infnan2) for __mathlib_dbl_infnan2
    atan2.o(i.__hardfp_atan2) refers to atan.o(i.atan) for atan
    atan2.o(i.__hardfp_atan2) refers to ddiv.o(.text) for __aeabi_ddiv
    atan2.o(i.__hardfp_atan2) refers to fabs.o(i.fabs) for fabs
    atan2.o(i.__hardfp_atan2) refers to dadd.o(.text) for __aeabi_dsub
    atan2.o(i.__hardfp_atan2) refers to cdcmple.o(.text) for __aeabi_cdcmpeq
    atan2.o(i.__hardfp_atan2) refers to errno.o(i.__set_errno) for __set_errno
    atan2.o(i.__hardfp_atan2) refers to qnan.o(.constdata) for __mathlib_zero
    atan2.o(i.__softfp_atan2) refers (Special) to iusefp.o(.text) for __I$use$fp
    atan2.o(i.__softfp_atan2) refers to atan2.o(i.__hardfp_atan2) for __hardfp_atan2
    atan2.o(i.atan2) refers (Special) to iusefp.o(.text) for __I$use$fp
    atan2.o(i.atan2) refers to atan2.o(i.__hardfp_atan2) for __hardfp_atan2
    atan2_x.o(i.____hardfp_atan2$lsc) refers (Special) to iusefp.o(.text) for __I$use$fp
    atan2_x.o(i.____hardfp_atan2$lsc) refers to dunder.o(i.__mathlib_dbl_infnan2) for __mathlib_dbl_infnan2
    atan2_x.o(i.____hardfp_atan2$lsc) refers to atan.o(i.atan) for atan
    atan2_x.o(i.____hardfp_atan2$lsc) refers to errno.o(i.__set_errno) for __set_errno
    atan2_x.o(i.____hardfp_atan2$lsc) refers to ddiv.o(.text) for __aeabi_ddiv
    atan2_x.o(i.____hardfp_atan2$lsc) refers to fabs.o(i.fabs) for fabs
    atan2_x.o(i.____hardfp_atan2$lsc) refers to dadd.o(.text) for __aeabi_dsub
    atan2_x.o(i.____hardfp_atan2$lsc) refers to cdcmple.o(.text) for __aeabi_cdcmpeq
    atan2_x.o(i.____hardfp_atan2$lsc) refers to qnan.o(.constdata) for __mathlib_zero
    atan2_x.o(i.____softfp_atan2$lsc) refers (Special) to iusefp.o(.text) for __I$use$fp
    atan2_x.o(i.____softfp_atan2$lsc) refers to atan2_x.o(i.____hardfp_atan2$lsc) for ____hardfp_atan2$lsc
    atan2_x.o(i.__atan2$lsc) refers (Special) to iusefp.o(.text) for __I$use$fp
    atan2_x.o(i.__atan2$lsc) refers to atan2_x.o(i.____hardfp_atan2$lsc) for ____hardfp_atan2$lsc
    cos.o(i.__hardfp_cos) refers (Special) to iusefp.o(.text) for __I$use$fp
    cos.o(i.__hardfp_cos) refers to errno.o(i.__set_errno) for __set_errno
    cos.o(i.__hardfp_cos) refers to dunder.o(i.__mathlib_dbl_invalid) for __mathlib_dbl_invalid
    cos.o(i.__hardfp_cos) refers to dunder.o(i.__mathlib_dbl_infnan) for __mathlib_dbl_infnan
    cos.o(i.__hardfp_cos) refers to rred.o(i.__ieee754_rem_pio2) for __ieee754_rem_pio2
    cos.o(i.__hardfp_cos) refers to sin_i.o(i.__kernel_sin) for __kernel_sin
    cos.o(i.__hardfp_cos) refers to cos_i.o(i.__kernel_cos) for __kernel_cos
    cos.o(i.__softfp_cos) refers (Special) to iusefp.o(.text) for __I$use$fp
    cos.o(i.__softfp_cos) refers to cos.o(i.__hardfp_cos) for __hardfp_cos
    cos.o(i.cos) refers (Special) to iusefp.o(.text) for __I$use$fp
    cos.o(i.cos) refers to cos.o(i.__hardfp_cos) for __hardfp_cos
    cos_x.o(i.____hardfp_cos$lsc) refers (Special) to iusefp.o(.text) for __I$use$fp
    cos_x.o(i.____hardfp_cos$lsc) refers to errno.o(i.__set_errno) for __set_errno
    cos_x.o(i.____hardfp_cos$lsc) refers to dunder.o(i.__mathlib_dbl_infnan) for __mathlib_dbl_infnan
    cos_x.o(i.____hardfp_cos$lsc) refers to rred.o(i.__ieee754_rem_pio2) for __ieee754_rem_pio2
    cos_x.o(i.____hardfp_cos$lsc) refers to sin_i.o(i.__kernel_sin) for __kernel_sin
    cos_x.o(i.____hardfp_cos$lsc) refers to cos_i.o(i.__kernel_cos) for __kernel_cos
    cos_x.o(i.____softfp_cos$lsc) refers (Special) to iusefp.o(.text) for __I$use$fp
    cos_x.o(i.____softfp_cos$lsc) refers to cos_x.o(i.____hardfp_cos$lsc) for ____hardfp_cos$lsc
    cos_x.o(i.__cos$lsc) refers (Special) to iusefp.o(.text) for __I$use$fp
    cos_x.o(i.__cos$lsc) refers to cos_x.o(i.____hardfp_cos$lsc) for ____hardfp_cos$lsc
    sin.o(i.__hardfp_sin) refers (Special) to iusefp.o(.text) for __I$use$fp
    sin.o(i.__hardfp_sin) refers to errno.o(i.__set_errno) for __set_errno
    sin.o(i.__hardfp_sin) refers to dunder.o(i.__mathlib_dbl_invalid) for __mathlib_dbl_invalid
    sin.o(i.__hardfp_sin) refers to dunder.o(i.__mathlib_dbl_infnan) for __mathlib_dbl_infnan
    sin.o(i.__hardfp_sin) refers to rred.o(i.__ieee754_rem_pio2) for __ieee754_rem_pio2
    sin.o(i.__hardfp_sin) refers to cos_i.o(i.__kernel_cos) for __kernel_cos
    sin.o(i.__hardfp_sin) refers to sin_i.o(i.__kernel_sin) for __kernel_sin
    sin.o(i.__softfp_sin) refers (Special) to iusefp.o(.text) for __I$use$fp
    sin.o(i.__softfp_sin) refers to sin.o(i.__hardfp_sin) for __hardfp_sin
    sin.o(i.sin) refers (Special) to iusefp.o(.text) for __I$use$fp
    sin.o(i.sin) refers to sin.o(i.__hardfp_sin) for __hardfp_sin
    sin_x.o(i.____hardfp_sin$lsc) refers (Special) to iusefp.o(.text) for __I$use$fp
    sin_x.o(i.____hardfp_sin$lsc) refers to errno.o(i.__set_errno) for __set_errno
    sin_x.o(i.____hardfp_sin$lsc) refers to dunder.o(i.__mathlib_dbl_infnan) for __mathlib_dbl_infnan
    sin_x.o(i.____hardfp_sin$lsc) refers to rred.o(i.__ieee754_rem_pio2) for __ieee754_rem_pio2
    sin_x.o(i.____hardfp_sin$lsc) refers to cos_i.o(i.__kernel_cos) for __kernel_cos
    sin_x.o(i.____hardfp_sin$lsc) refers to sin_i.o(i.__kernel_sin) for __kernel_sin
    sin_x.o(i.____softfp_sin$lsc) refers (Special) to iusefp.o(.text) for __I$use$fp
    sin_x.o(i.____softfp_sin$lsc) refers to sin_x.o(i.____hardfp_sin$lsc) for ____hardfp_sin$lsc
    sin_x.o(i.__sin$lsc) refers (Special) to iusefp.o(.text) for __I$use$fp
    sin_x.o(i.__sin$lsc) refers to sin_x.o(i.____hardfp_sin$lsc) for ____hardfp_sin$lsc
    sqrt.o(i.__hardfp_sqrt) refers (Special) to iusefp.o(.text) for __I$use$fp
    sqrt.o(i.__hardfp_sqrt) refers to dsqrt.o(.text) for _dsqrt
    sqrt.o(i.__hardfp_sqrt) refers to errno.o(i.__set_errno) for __set_errno
    sqrt.o(i.__softfp_sqrt) refers (Special) to iusefp.o(.text) for __I$use$fp
    sqrt.o(i.__softfp_sqrt) refers to dsqrt.o(.text) for _dsqrt
    sqrt.o(i.__softfp_sqrt) refers to errno.o(i.__set_errno) for __set_errno
    sqrt.o(i.sqrt) refers (Special) to iusefp.o(.text) for __I$use$fp
    sqrt.o(i.sqrt) refers to dsqrt.o(.text) for _dsqrt
    sqrt.o(i.sqrt) refers to errno.o(i.__set_errno) for __set_errno
    sqrt_x.o(i.____hardfp_sqrt$lsc) refers (Special) to iusefp.o(.text) for __I$use$fp
    sqrt_x.o(i.____hardfp_sqrt$lsc) refers to cdcmple.o(.text) for __aeabi_cdcmple
    sqrt_x.o(i.____hardfp_sqrt$lsc) refers to errno.o(i.__set_errno) for __set_errno
    sqrt_x.o(i.____hardfp_sqrt$lsc) refers to dsqrt.o(.text) for _dsqrt
    sqrt_x.o(i.____softfp_sqrt$lsc) refers (Special) to iusefp.o(.text) for __I$use$fp
    sqrt_x.o(i.____softfp_sqrt$lsc) refers to cdcmple.o(.text) for __aeabi_cdcmple
    sqrt_x.o(i.____softfp_sqrt$lsc) refers to errno.o(i.__set_errno) for __set_errno
    sqrt_x.o(i.____softfp_sqrt$lsc) refers to dsqrt.o(.text) for _dsqrt
    sqrt_x.o(i.__sqrt$lsc) refers (Special) to iusefp.o(.text) for __I$use$fp
    sqrt_x.o(i.__sqrt$lsc) refers to cdcmple.o(.text) for __aeabi_cdcmple
    sqrt_x.o(i.__sqrt$lsc) refers to errno.o(i.__set_errno) for __set_errno
    sqrt_x.o(i.__sqrt$lsc) refers to dsqrt.o(.text) for _dsqrt
    entry.o(.ARM.Collect$$$$00000000) refers (Special) to entry10a.o(.ARM.Collect$$$$0000000F) for __rt_final_cpp
    entry.o(.ARM.Collect$$$$00000000) refers (Special) to entry11a.o(.ARM.Collect$$$$00000011) for __rt_final_exit
    entry.o(.ARM.Collect$$$$00000000) refers (Special) to entry12b.o(.ARM.Collect$$$$0000000E) for __rt_lib_shutdown_fini
    entry.o(.ARM.Collect$$$$00000000) refers (Special) to entry7b.o(.ARM.Collect$$$$00000008) for _main_clock
    entry.o(.ARM.Collect$$$$00000000) refers (Special) to entry8b.o(.ARM.Collect$$$$0000000A) for _main_cpp_init
    entry.o(.ARM.Collect$$$$00000000) refers (Special) to entry9a.o(.ARM.Collect$$$$0000000B) for _main_init
    entry.o(.ARM.Collect$$$$00000000) refers (Special) to entry5.o(.ARM.Collect$$$$00000004) for _main_scatterload
    entry.o(.ARM.Collect$$$$00000000) refers (Special) to entry2.o(.ARM.Collect$$$$00000001) for _main_stk
    uldiv.o(.text) refers to llushr.o(.text) for __aeabi_llsr
    uldiv.o(.text) refers to llshl.o(.text) for __aeabi_llsl
    malloc.o(i.free) refers to mvars.o(.data) for __microlib_freelist
    malloc.o(i.malloc) refers to mvars.o(.data) for __microlib_freelist_initialised
    malloc.o(i.malloc) refers to mvars.o(.data) for __microlib_freelist
    malloc.o(i.malloc) refers to startup_stm32f429xx.o(HEAP) for __heap_base
    mallocr.o(i.__free$realloc) refers to mvars.o(.data) for __microlib_freelist
    mallocr.o(i.__malloc$realloc) refers to mallocr.o(i.internal_alloc) for internal_alloc
    mallocr.o(i.__malloc$realloc) refers to mvars.o(.data) for __microlib_freelist_initialised
    mallocr.o(i.__malloc$realloc) refers to startup_stm32f429xx.o(HEAP) for __heap_base
    mallocr.o(i.__malloc$realloc) refers to mvars.o(.data) for __microlib_freelist
    mallocr.o(i.internal_alloc) refers to memcpya.o(.text) for __aeabi_memcpy
    mallocr.o(i.internal_alloc) refers to mvars.o(.data) for __microlib_freelist
    mallocr.o(i.realloc) refers to mallocr.o(i.__free$realloc) for __free$realloc
    mallocr.o(i.realloc) refers to mallocr.o(i.internal_alloc) for internal_alloc
    mallocr.o(i.realloc) refers to mallocr.o(i.__malloc$realloc) for __malloc$realloc
    mallocr.o(i.realloc) refers to mvars.o(.data) for __microlib_freelist
    malloca.o(i.__aligned_malloc) refers to mvars.o(.data) for __microlib_freelist_initialised
    malloca.o(i.__aligned_malloc) refers to mvars.o(.data) for __microlib_freelist
    malloca.o(i.__aligned_malloc) refers to startup_stm32f429xx.o(HEAP) for __heap_base
    malloca.o(i.__free$memalign) refers to mvars.o(.data) for __microlib_freelist
    malloca.o(i.__malloc$memalign) refers to malloca.o(i.__aligned_malloc) for __aligned_malloc
    mallocra.o(i.__aligned_malloc$realloc) refers to mallocra.o(i.internal_alloc) for internal_alloc
    mallocra.o(i.__aligned_malloc$realloc) refers to mvars.o(.data) for __microlib_freelist_initialised
    mallocra.o(i.__aligned_malloc$realloc) refers to startup_stm32f429xx.o(HEAP) for __heap_base
    mallocra.o(i.__aligned_malloc$realloc) refers to mvars.o(.data) for __microlib_freelist
    mallocra.o(i.__free$realloc$memalign) refers to mvars.o(.data) for __microlib_freelist
    mallocra.o(i.__malloc$realloc$memalign) refers to mallocra.o(i.__aligned_malloc$realloc) for __aligned_malloc$realloc
    mallocra.o(i.__realloc$memalign) refers to mallocra.o(i.__free$realloc$memalign) for __free$realloc$memalign
    mallocra.o(i.__realloc$memalign) refers to mallocra.o(i.internal_alloc) for internal_alloc
    mallocra.o(i.__realloc$memalign) refers to mallocra.o(i.__malloc$realloc$memalign) for __malloc$realloc$memalign
    mallocra.o(i.__realloc$memalign) refers to mvars.o(.data) for __microlib_freelist
    mallocra.o(i.internal_alloc) refers to memcpya.o(.text) for __aeabi_memcpy
    mallocra.o(i.internal_alloc) refers to mvars.o(.data) for __microlib_freelist
    dadd.o(.text) refers (Special) to iusefp.o(.text) for __I$use$fp
    dadd.o(.text) refers to llshl.o(.text) for __aeabi_llsl
    dadd.o(.text) refers to llsshr.o(.text) for __aeabi_lasr
    dadd.o(.text) refers to depilogue.o(.text) for _double_epilogue
    dmul.o(.text) refers (Special) to iusefp.o(.text) for __I$use$fp
    dmul.o(.text) refers to depilogue.o(.text) for _double_epilogue
    ddiv.o(.text) refers (Special) to iusefp.o(.text) for __I$use$fp
    ddiv.o(.text) refers to depilogue.o(.text) for _double_round
    dneg.o(.text) refers (Special) to iusefp.o(.text) for __I$use$fp
    dflti.o(.text) refers (Special) to iusefp.o(.text) for __I$use$fp
    dflti.o(.text) refers to depilogue.o(.text) for _double_epilogue
    dfixi.o(.text) refers (Special) to iusefp.o(.text) for __I$use$fp
    dfixi.o(.text) refers to llushr.o(.text) for __aeabi_llsr
    f2d.o(.text) refers (Special) to iusefp.o(.text) for __I$use$fp
    cdcmple.o(.text) refers (Special) to iusefp.o(.text) for __I$use$fp
    cdrcmple.o(.text) refers (Special) to iusefp.o(.text) for __I$use$fp
    d2f.o(.text) refers (Special) to iusefp.o(.text) for __I$use$fp
    d2f.o(.text) refers to fepilogue.o(.text) for _float_round
    cos_i.o(i.__kernel_cos) refers (Special) to iusefp.o(.text) for __I$use$fp
    cos_i.o(i.__kernel_cos) refers to dfixi.o(.text) for __aeabi_d2iz
    cos_i.o(i.__kernel_cos) refers to dmul.o(.text) for __aeabi_dmul
    cos_i.o(i.__kernel_cos) refers to poly.o(i.__kernel_poly) for __kernel_poly
    cos_i.o(i.__kernel_cos) refers to dadd.o(.text) for __aeabi_dsub
    cos_i.o(i.__kernel_cos) refers to cos_i.o(.constdata) for .constdata
    cos_i.o(.constdata) refers (Special) to iusefp.o(.text) for __I$use$fp
    dunder.o(i.__mathlib_dbl_divzero) refers to ddiv.o(.text) for __aeabi_ddiv
    dunder.o(i.__mathlib_dbl_infnan) refers to dadd.o(.text) for __aeabi_dadd
    dunder.o(i.__mathlib_dbl_infnan2) refers to dadd.o(.text) for __aeabi_dadd
    dunder.o(i.__mathlib_dbl_invalid) refers to ddiv.o(.text) for __aeabi_ddiv
    dunder.o(i.__mathlib_dbl_overflow) refers to dmul.o(.text) for __aeabi_dmul
    dunder.o(i.__mathlib_dbl_posinfnan) refers to dmul.o(.text) for __aeabi_dmul
    dunder.o(i.__mathlib_dbl_underflow) refers to dmul.o(.text) for __aeabi_dmul
    fabs.o(i.__hardfp_fabs) refers (Special) to iusefp.o(.text) for __I$use$fp
    fabs.o(i.__softfp_fabs) refers (Special) to iusefp.o(.text) for __I$use$fp
    fabs.o(i.fabs) refers (Special) to iusefp.o(.text) for __I$use$fp
    fpclassify.o(i.__ARM_fpclassify) refers (Special) to iusefp.o(.text) for __I$use$fp
    poly.o(i.__kernel_poly) refers (Special) to iusefp.o(.text) for __I$use$fp
    poly.o(i.__kernel_poly) refers to dmul.o(.text) for __aeabi_dmul
    poly.o(i.__kernel_poly) refers to dadd.o(.text) for __aeabi_dadd
    qnan.o(.constdata) refers (Special) to iusefp.o(.text) for __I$use$fp
    rred.o(i.__ieee754_rem_pio2) refers (Special) to iusefp.o(.text) for __I$use$fp
    rred.o(i.__ieee754_rem_pio2) refers to dadd.o(.text) for __aeabi_dsub
    rred.o(i.__ieee754_rem_pio2) refers to fabs.o(i.fabs) for fabs
    rred.o(i.__ieee754_rem_pio2) refers to dmul.o(.text) for __aeabi_dmul
    rred.o(i.__ieee754_rem_pio2) refers to dfixi.o(.text) for __aeabi_d2iz
    rred.o(i.__ieee754_rem_pio2) refers to dflti.o(.text) for __aeabi_i2d
    rred.o(i.__ieee754_rem_pio2) refers to dfltui.o(.text) for __aeabi_ui2d
    rred.o(i.__ieee754_rem_pio2) refers to rred.o(.constdata) for .constdata
    rred.o(i.__use_accurate_range_reduction) refers (Special) to iusefp.o(.text) for __I$use$fp
    rred.o(.constdata) refers (Special) to iusefp.o(.text) for __I$use$fp
    sin_i.o(i.__kernel_sin) refers (Special) to iusefp.o(.text) for __I$use$fp
    sin_i.o(i.__kernel_sin) refers to fpclassify.o(i.__ARM_fpclassify) for __ARM_fpclassify
    sin_i.o(i.__kernel_sin) refers to dunder.o(i.__mathlib_dbl_underflow) for __mathlib_dbl_underflow
    sin_i.o(i.__kernel_sin) refers to dmul.o(.text) for __aeabi_dmul
    sin_i.o(i.__kernel_sin) refers to poly.o(i.__kernel_poly) for __kernel_poly
    sin_i.o(i.__kernel_sin) refers to dadd.o(.text) for __aeabi_dsub
    sin_i.o(i.__kernel_sin) refers to sin_i.o(.constdata) for .constdata
    sin_i.o(.constdata) refers (Special) to iusefp.o(.text) for __I$use$fp
    sin_i_x.o(i.____kernel_sin$lsc) refers (Special) to iusefp.o(.text) for __I$use$fp
    sin_i_x.o(i.____kernel_sin$lsc) refers to dmul.o(.text) for __aeabi_dmul
    sin_i_x.o(i.____kernel_sin$lsc) refers to poly.o(i.__kernel_poly) for __kernel_poly
    sin_i_x.o(i.____kernel_sin$lsc) refers to dadd.o(.text) for __aeabi_dsub
    sin_i_x.o(i.____kernel_sin$lsc) refers to sin_i_x.o(.constdata) for .constdata
    sin_i_x.o(.constdata) refers (Special) to iusefp.o(.text) for __I$use$fp
    entry2.o(.ARM.Collect$$$$00000001) refers to entry2.o(.ARM.Collect$$$$00002712) for __lit__00000000
    entry2.o(.ARM.Collect$$$$00002712) refers to startup_stm32f429xx.o(STACK) for __initial_sp
    entry2.o(__vectab_stack_and_reset_area) refers to startup_stm32f429xx.o(STACK) for __initial_sp
    entry2.o(__vectab_stack_and_reset_area) refers to entry.o(.ARM.Collect$$$$00000000) for __main
    entry5.o(.ARM.Collect$$$$00000004) refers to init.o(.text) for __scatterload
    entry9a.o(.ARM.Collect$$$$0000000B) refers to main.o(i.main) for main
    entry9b.o(.ARM.Collect$$$$0000000C) refers to main.o(i.main) for main
    errno.o(i.__aeabi_errno_addr) refers to errno.o(.data) for .data
    errno.o(i.__read_errno) refers to errno.o(.data) for .data
    errno.o(i.__set_errno) refers to errno.o(.data) for .data
    depilogue.o(.text) refers to llshl.o(.text) for __aeabi_llsl
    depilogue.o(.text) refers to llushr.o(.text) for __aeabi_llsr
    dsqrt.o(.text) refers to llushr.o(.text) for __aeabi_llsr
    dsqrt.o(.text) refers to depilogue.o(.text) for _double_round
    init.o(.text) refers to entry5.o(.ARM.Collect$$$$00000004) for __main_after_scatterload
    dfltui.o(.text) refers to depilogue.o(.text) for _double_epilogue


==============================================================================

Removing Unused input sections from the image.

    Removing main.o(.rev16_text), (4 bytes).
    Removing main.o(.revsh_text), (4 bytes).
    Removing main.o(.rrx_text), (6 bytes).
    Removing main.o(.bss), (50 bytes).
    Removing main.o(.bss), (120 bytes).
    Removing main.o(.data), (4 bytes).
    Removing main.o(.data), (4 bytes).
    Removing main.o(.data), (4 bytes).
    Removing main.o(.data), (4 bytes).
    Removing main.o(.data), (4 bytes).
    Removing main.o(.data), (4 bytes).
    Removing main.o(.data), (4 bytes).
    Removing main.o(.data), (4 bytes).
    Removing stm32f4xx_it.o(.rev16_text), (4 bytes).
    Removing stm32f4xx_it.o(.revsh_text), (4 bytes).
    Removing stm32f4xx_it.o(.rrx_text), (6 bytes).
    Removing stm32f4xx_it.o(.data), (4 bytes).
    Removing stm32f4xx_it.o(.data), (4 bytes).
    Removing stm32f4xx_hal_msp.o(.rev16_text), (4 bytes).
    Removing stm32f4xx_hal_msp.o(.revsh_text), (4 bytes).
    Removing stm32f4xx_hal_msp.o(.rrx_text), (6 bytes).
    Removing stm32f4xx_hal_msp.o(i.HAL_CAN_MspDeInit), (56 bytes).
    Removing freertos.o(.rev16_text), (4 bytes).
    Removing freertos.o(.revsh_text), (4 bytes).
    Removing freertos.o(.rrx_text), (6 bytes).
    Removing freertos.o(i.FMS2_Task), (8 bytes).
    Removing freertos.o(i.Key_scan), (8 bytes).
    Removing freertos.o(.data), (4 bytes).
    Removing tim.o(.rev16_text), (4 bytes).
    Removing tim.o(.revsh_text), (4 bytes).
    Removing tim.o(.rrx_text), (6 bytes).
    Removing tim.o(i.HAL_TIM_Base_MspDeInit), (36 bytes).
    Removing stm32f4xx_hal_can.o(.rev16_text), (4 bytes).
    Removing stm32f4xx_hal_can.o(.revsh_text), (4 bytes).
    Removing stm32f4xx_hal_can.o(.rrx_text), (6 bytes).
    Removing stm32f4xx_hal_can.o(i.HAL_CAN_AbortTxRequest), (80 bytes).
    Removing stm32f4xx_hal_can.o(i.HAL_CAN_DeInit), (130 bytes).
    Removing stm32f4xx_hal_can.o(i.HAL_CAN_DeactivateNotification), (42 bytes).
    Removing stm32f4xx_hal_can.o(i.HAL_CAN_GetTxMailboxesFreeLevel), (50 bytes).
    Removing stm32f4xx_hal_can.o(i.HAL_CAN_GetTxTimestamp), (42 bytes).
    Removing stm32f4xx_hal_can.o(i.HAL_CAN_IsSleepActive), (30 bytes).
    Removing stm32f4xx_hal_can.o(i.HAL_CAN_IsTxMessagePending), (34 bytes).
    Removing stm32f4xx_hal_can.o(i.HAL_CAN_MspDeInit), (2 bytes).
    Removing stm32f4xx_hal_can.o(i.HAL_CAN_MspInit), (2 bytes).
    Removing stm32f4xx_hal_can.o(i.HAL_CAN_RequestSleep), (42 bytes).
    Removing stm32f4xx_hal_can.o(i.HAL_CAN_ResetError), (34 bytes).
    Removing stm32f4xx_hal_can.o(i.HAL_CAN_RxFifo0MsgPendingCallback), (2 bytes).
    Removing stm32f4xx_hal_can.o(i.HAL_CAN_Stop), (108 bytes).
    Removing stm32f4xx_hal_can.o(i.HAL_CAN_WakeUp), (92 bytes).
    Removing stm32f4xx_hal_rcc.o(.rev16_text), (4 bytes).
    Removing stm32f4xx_hal_rcc.o(.revsh_text), (4 bytes).
    Removing stm32f4xx_hal_rcc.o(.rrx_text), (6 bytes).
    Removing stm32f4xx_hal_rcc.o(i.HAL_RCC_CSSCallback), (2 bytes).
    Removing stm32f4xx_hal_rcc.o(i.HAL_RCC_DeInit), (4 bytes).
    Removing stm32f4xx_hal_rcc.o(i.HAL_RCC_DisableCSS), (12 bytes).
    Removing stm32f4xx_hal_rcc.o(i.HAL_RCC_EnableCSS), (12 bytes).
    Removing stm32f4xx_hal_rcc.o(i.HAL_RCC_GetClockConfig), (64 bytes).
    Removing stm32f4xx_hal_rcc.o(i.HAL_RCC_GetHCLKFreq), (12 bytes).
    Removing stm32f4xx_hal_rcc.o(i.HAL_RCC_GetOscConfig), (216 bytes).
    Removing stm32f4xx_hal_rcc.o(i.HAL_RCC_MCOConfig), (148 bytes).
    Removing stm32f4xx_hal_rcc.o(i.HAL_RCC_NMI_IRQHandler), (36 bytes).
    Removing stm32f4xx_hal_rcc_ex.o(.rev16_text), (4 bytes).
    Removing stm32f4xx_hal_rcc_ex.o(.revsh_text), (4 bytes).
    Removing stm32f4xx_hal_rcc_ex.o(.rrx_text), (6 bytes).
    Removing stm32f4xx_hal_rcc_ex.o(i.HAL_RCCEx_DisablePLLI2S), (60 bytes).
    Removing stm32f4xx_hal_rcc_ex.o(i.HAL_RCCEx_DisablePLLSAI), (60 bytes).
    Removing stm32f4xx_hal_rcc_ex.o(i.HAL_RCCEx_EnablePLLI2S), (128 bytes).
    Removing stm32f4xx_hal_rcc_ex.o(i.HAL_RCCEx_EnablePLLSAI), (128 bytes).
    Removing stm32f4xx_hal_rcc_ex.o(i.HAL_RCCEx_GetPeriphCLKConfig), (140 bytes).
    Removing stm32f4xx_hal_rcc_ex.o(i.HAL_RCCEx_GetPeriphCLKFreq), (100 bytes).
    Removing stm32f4xx_hal_rcc_ex.o(i.HAL_RCCEx_PeriphCLKConfig), (660 bytes).
    Removing stm32f4xx_hal_rcc_ex.o(i.HAL_RCC_DeInit), (416 bytes).
    Removing stm32f4xx_hal_flash.o(.rev16_text), (4 bytes).
    Removing stm32f4xx_hal_flash.o(.revsh_text), (4 bytes).
    Removing stm32f4xx_hal_flash.o(.rrx_text), (6 bytes).
    Removing stm32f4xx_hal_flash.o(i.FLASH_SetErrorCode), (140 bytes).
    Removing stm32f4xx_hal_flash.o(i.FLASH_WaitForLastOperation), (96 bytes).
    Removing stm32f4xx_hal_flash.o(i.HAL_FLASH_EndOfOperationCallback), (2 bytes).
    Removing stm32f4xx_hal_flash.o(i.HAL_FLASH_GetError), (12 bytes).
    Removing stm32f4xx_hal_flash.o(i.HAL_FLASH_IRQHandler), (212 bytes).
    Removing stm32f4xx_hal_flash.o(i.HAL_FLASH_Lock), (20 bytes).
    Removing stm32f4xx_hal_flash.o(i.HAL_FLASH_OB_Launch), (24 bytes).
    Removing stm32f4xx_hal_flash.o(i.HAL_FLASH_OB_Lock), (20 bytes).
    Removing stm32f4xx_hal_flash.o(i.HAL_FLASH_OB_Unlock), (44 bytes).
    Removing stm32f4xx_hal_flash.o(i.HAL_FLASH_OperationErrorCallback), (2 bytes).
    Removing stm32f4xx_hal_flash.o(i.HAL_FLASH_Program), (200 bytes).
    Removing stm32f4xx_hal_flash.o(i.HAL_FLASH_Program_IT), (256 bytes).
    Removing stm32f4xx_hal_flash.o(i.HAL_FLASH_Unlock), (52 bytes).
    Removing stm32f4xx_hal_flash.o(.bss), (32 bytes).
    Removing stm32f4xx_hal_flash_ex.o(.rev16_text), (4 bytes).
    Removing stm32f4xx_hal_flash_ex.o(.revsh_text), (4 bytes).
    Removing stm32f4xx_hal_flash_ex.o(.rrx_text), (6 bytes).
    Removing stm32f4xx_hal_flash_ex.o(i.FLASH_Erase_Sector), (84 bytes).
    Removing stm32f4xx_hal_flash_ex.o(i.FLASH_FlushCaches), (92 bytes).
    Removing stm32f4xx_hal_flash_ex.o(i.HAL_FLASHEx_AdvOBGetConfig), (32 bytes).
    Removing stm32f4xx_hal_flash_ex.o(i.HAL_FLASHEx_AdvOBProgram), (216 bytes).
    Removing stm32f4xx_hal_flash_ex.o(i.HAL_FLASHEx_Erase), (372 bytes).
    Removing stm32f4xx_hal_flash_ex.o(i.HAL_FLASHEx_Erase_IT), (228 bytes).
    Removing stm32f4xx_hal_flash_ex.o(i.HAL_FLASHEx_OBGetConfig), (68 bytes).
    Removing stm32f4xx_hal_flash_ex.o(i.HAL_FLASHEx_OBProgram), (376 bytes).
    Removing stm32f4xx_hal_flash_ex.o(i.HAL_FLASHEx_OB_DeSelectPCROP), (20 bytes).
    Removing stm32f4xx_hal_flash_ex.o(i.HAL_FLASHEx_OB_GetBank2WRP), (12 bytes).
    Removing stm32f4xx_hal_flash_ex.o(i.HAL_FLASHEx_OB_SelectPCROP), (24 bytes).
    Removing stm32f4xx_hal_flash_ramfunc.o(.rev16_text), (4 bytes).
    Removing stm32f4xx_hal_flash_ramfunc.o(.revsh_text), (4 bytes).
    Removing stm32f4xx_hal_flash_ramfunc.o(.rrx_text), (6 bytes).
    Removing stm32f4xx_hal_gpio.o(.rev16_text), (4 bytes).
    Removing stm32f4xx_hal_gpio.o(.revsh_text), (4 bytes).
    Removing stm32f4xx_hal_gpio.o(.rrx_text), (6 bytes).
    Removing stm32f4xx_hal_gpio.o(i.HAL_GPIO_EXTI_Callback), (2 bytes).
    Removing stm32f4xx_hal_gpio.o(i.HAL_GPIO_EXTI_IRQHandler), (24 bytes).
    Removing stm32f4xx_hal_gpio.o(i.HAL_GPIO_LockPin), (36 bytes).
    Removing stm32f4xx_hal_gpio.o(i.HAL_GPIO_TogglePin), (14 bytes).
    Removing stm32f4xx_hal_dma_ex.o(.rev16_text), (4 bytes).
    Removing stm32f4xx_hal_dma_ex.o(.revsh_text), (4 bytes).
    Removing stm32f4xx_hal_dma_ex.o(.rrx_text), (6 bytes).
    Removing stm32f4xx_hal_dma_ex.o(i.HAL_DMAEx_ChangeMemory), (14 bytes).
    Removing stm32f4xx_hal_dma_ex.o(i.HAL_DMAEx_MultiBufferStart), (124 bytes).
    Removing stm32f4xx_hal_dma_ex.o(i.HAL_DMAEx_MultiBufferStart_IT), (2056 bytes).
    Removing stm32f4xx_hal_dma.o(.rev16_text), (4 bytes).
    Removing stm32f4xx_hal_dma.o(.revsh_text), (4 bytes).
    Removing stm32f4xx_hal_dma.o(.rrx_text), (6 bytes).
    Removing stm32f4xx_hal_dma.o(i.HAL_DMA_DeInit), (140 bytes).
    Removing stm32f4xx_hal_dma.o(i.HAL_DMA_GetState), (6 bytes).
    Removing stm32f4xx_hal_dma.o(i.HAL_DMA_PollForTransfer), (474 bytes).
    Removing stm32f4xx_hal_dma.o(i.HAL_DMA_RegisterCallback), (84 bytes).
    Removing stm32f4xx_hal_dma.o(i.HAL_DMA_Start), (108 bytes).
    Removing stm32f4xx_hal_dma.o(i.HAL_DMA_UnRegisterCallback), (96 bytes).
    Removing stm32f4xx_hal_pwr.o(.rev16_text), (4 bytes).
    Removing stm32f4xx_hal_pwr.o(.revsh_text), (4 bytes).
    Removing stm32f4xx_hal_pwr.o(.rrx_text), (6 bytes).
    Removing stm32f4xx_hal_pwr.o(i.HAL_PWR_ConfigPVD), (152 bytes).
    Removing stm32f4xx_hal_pwr.o(i.HAL_PWR_DeInit), (24 bytes).
    Removing stm32f4xx_hal_pwr.o(i.HAL_PWR_DisableBkUpAccess), (12 bytes).
    Removing stm32f4xx_hal_pwr.o(i.HAL_PWR_DisablePVD), (12 bytes).
    Removing stm32f4xx_hal_pwr.o(i.HAL_PWR_DisableSEVOnPend), (16 bytes).
    Removing stm32f4xx_hal_pwr.o(i.HAL_PWR_DisableSleepOnExit), (16 bytes).
    Removing stm32f4xx_hal_pwr.o(i.HAL_PWR_DisableWakeUpPin), (16 bytes).
    Removing stm32f4xx_hal_pwr.o(i.HAL_PWR_EnableBkUpAccess), (12 bytes).
    Removing stm32f4xx_hal_pwr.o(i.HAL_PWR_EnablePVD), (12 bytes).
    Removing stm32f4xx_hal_pwr.o(i.HAL_PWR_EnableSEVOnPend), (16 bytes).
    Removing stm32f4xx_hal_pwr.o(i.HAL_PWR_EnableSleepOnExit), (16 bytes).
    Removing stm32f4xx_hal_pwr.o(i.HAL_PWR_EnableWakeUpPin), (16 bytes).
    Removing stm32f4xx_hal_pwr.o(i.HAL_PWR_EnterSLEEPMode), (32 bytes).
    Removing stm32f4xx_hal_pwr.o(i.HAL_PWR_EnterSTANDBYMode), (32 bytes).
    Removing stm32f4xx_hal_pwr.o(i.HAL_PWR_EnterSTOPMode), (52 bytes).
    Removing stm32f4xx_hal_pwr.o(i.HAL_PWR_PVDCallback), (2 bytes).
    Removing stm32f4xx_hal_pwr.o(i.HAL_PWR_PVD_IRQHandler), (32 bytes).
    Removing stm32f4xx_hal_pwr_ex.o(.rev16_text), (4 bytes).
    Removing stm32f4xx_hal_pwr_ex.o(.revsh_text), (4 bytes).
    Removing stm32f4xx_hal_pwr_ex.o(.rrx_text), (6 bytes).
    Removing stm32f4xx_hal_pwr_ex.o(i.HAL_PWREx_ControlVoltageScaling), (208 bytes).
    Removing stm32f4xx_hal_pwr_ex.o(i.HAL_PWREx_DisableBkUpReg), (64 bytes).
    Removing stm32f4xx_hal_pwr_ex.o(i.HAL_PWREx_DisableFlashPowerDown), (12 bytes).
    Removing stm32f4xx_hal_pwr_ex.o(i.HAL_PWREx_DisableOverDrive), (120 bytes).
    Removing stm32f4xx_hal_pwr_ex.o(i.HAL_PWREx_EnableBkUpReg), (64 bytes).
    Removing stm32f4xx_hal_pwr_ex.o(i.HAL_PWREx_EnableFlashPowerDown), (12 bytes).
    Removing stm32f4xx_hal_pwr_ex.o(i.HAL_PWREx_EnterUnderDriveSTOPMode), (96 bytes).
    Removing stm32f4xx_hal_pwr_ex.o(i.HAL_PWREx_GetVoltageRange), (16 bytes).
    Removing stm32f4xx_hal_cortex.o(.rev16_text), (4 bytes).
    Removing stm32f4xx_hal_cortex.o(.revsh_text), (4 bytes).
    Removing stm32f4xx_hal_cortex.o(.rrx_text), (6 bytes).
    Removing stm32f4xx_hal_cortex.o(i.HAL_MPU_ConfigRegion), (84 bytes).
    Removing stm32f4xx_hal_cortex.o(i.HAL_MPU_Disable), (32 bytes).
    Removing stm32f4xx_hal_cortex.o(i.HAL_MPU_Enable), (36 bytes).
    Removing stm32f4xx_hal_cortex.o(i.HAL_NVIC_ClearPendingIRQ), (30 bytes).
    Removing stm32f4xx_hal_cortex.o(i.HAL_NVIC_GetActive), (38 bytes).
    Removing stm32f4xx_hal_cortex.o(i.HAL_NVIC_GetPendingIRQ), (38 bytes).
    Removing stm32f4xx_hal_cortex.o(i.HAL_NVIC_GetPriority), (86 bytes).
    Removing stm32f4xx_hal_cortex.o(i.HAL_NVIC_GetPriorityGrouping), (16 bytes).
    Removing stm32f4xx_hal_cortex.o(i.HAL_NVIC_SetPendingIRQ), (30 bytes).
    Removing stm32f4xx_hal_cortex.o(i.HAL_NVIC_SystemReset), (36 bytes).
    Removing stm32f4xx_hal_cortex.o(i.HAL_SYSTICK_CLKSourceConfig), (22 bytes).
    Removing stm32f4xx_hal_cortex.o(i.HAL_SYSTICK_Callback), (2 bytes).
    Removing stm32f4xx_hal_cortex.o(i.HAL_SYSTICK_IRQHandler), (8 bytes).
    Removing stm32f4xx_hal.o(.rev16_text), (4 bytes).
    Removing stm32f4xx_hal.o(.revsh_text), (4 bytes).
    Removing stm32f4xx_hal.o(.rrx_text), (6 bytes).
    Removing stm32f4xx_hal.o(i.HAL_DBGMCU_DisableDBGSleepMode), (16 bytes).
    Removing stm32f4xx_hal.o(i.HAL_DBGMCU_DisableDBGStandbyMode), (16 bytes).
    Removing stm32f4xx_hal.o(i.HAL_DBGMCU_DisableDBGStopMode), (16 bytes).
    Removing stm32f4xx_hal.o(i.HAL_DBGMCU_EnableDBGSleepMode), (16 bytes).
    Removing stm32f4xx_hal.o(i.HAL_DBGMCU_EnableDBGStandbyMode), (16 bytes).
    Removing stm32f4xx_hal.o(i.HAL_DBGMCU_EnableDBGStopMode), (16 bytes).
    Removing stm32f4xx_hal.o(i.HAL_DeInit), (56 bytes).
    Removing stm32f4xx_hal.o(i.HAL_DisableCompensationCell), (12 bytes).
    Removing stm32f4xx_hal.o(i.HAL_DisableMemorySwappingBank), (12 bytes).
    Removing stm32f4xx_hal.o(i.HAL_EnableCompensationCell), (12 bytes).
    Removing stm32f4xx_hal.o(i.HAL_EnableMemorySwappingBank), (12 bytes).
    Removing stm32f4xx_hal.o(i.HAL_GetDEVID), (16 bytes).
    Removing stm32f4xx_hal.o(i.HAL_GetHalVersion), (8 bytes).
    Removing stm32f4xx_hal.o(i.HAL_GetREVID), (12 bytes).
    Removing stm32f4xx_hal.o(i.HAL_GetTickFreq), (12 bytes).
    Removing stm32f4xx_hal.o(i.HAL_GetTickPrio), (12 bytes).
    Removing stm32f4xx_hal.o(i.HAL_GetUIDw0), (12 bytes).
    Removing stm32f4xx_hal.o(i.HAL_GetUIDw1), (12 bytes).
    Removing stm32f4xx_hal.o(i.HAL_GetUIDw2), (12 bytes).
    Removing stm32f4xx_hal.o(i.HAL_MspDeInit), (2 bytes).
    Removing stm32f4xx_hal.o(i.HAL_MspInit), (2 bytes).
    Removing stm32f4xx_hal.o(i.HAL_ResumeTick), (14 bytes).
    Removing stm32f4xx_hal.o(i.HAL_SetTickFreq), (36 bytes).
    Removing stm32f4xx_hal.o(i.HAL_SuspendTick), (14 bytes).
    Removing stm32f4xx_hal_exti.o(.rev16_text), (4 bytes).
    Removing stm32f4xx_hal_exti.o(.revsh_text), (4 bytes).
    Removing stm32f4xx_hal_exti.o(.rrx_text), (6 bytes).
    Removing stm32f4xx_hal_exti.o(i.HAL_EXTI_ClearConfigLine), (136 bytes).
    Removing stm32f4xx_hal_exti.o(i.HAL_EXTI_ClearPending), (24 bytes).
    Removing stm32f4xx_hal_exti.o(i.HAL_EXTI_GenerateSWI), (24 bytes).
    Removing stm32f4xx_hal_exti.o(i.HAL_EXTI_GetConfigLine), (160 bytes).
    Removing stm32f4xx_hal_exti.o(i.HAL_EXTI_GetHandle), (12 bytes).
    Removing stm32f4xx_hal_exti.o(i.HAL_EXTI_GetPending), (28 bytes).
    Removing stm32f4xx_hal_exti.o(i.HAL_EXTI_IRQHandler), (40 bytes).
    Removing stm32f4xx_hal_exti.o(i.HAL_EXTI_RegisterCallback), (14 bytes).
    Removing stm32f4xx_hal_exti.o(i.HAL_EXTI_SetConfigLine), (200 bytes).
    Removing stm32f4xx_hal_tim.o(.rev16_text), (4 bytes).
    Removing stm32f4xx_hal_tim.o(.revsh_text), (4 bytes).
    Removing stm32f4xx_hal_tim.o(.rrx_text), (6 bytes).
    Removing stm32f4xx_hal_tim.o(i.HAL_TIM_Base_DeInit), (56 bytes).
    Removing stm32f4xx_hal_tim.o(i.HAL_TIM_Base_GetState), (6 bytes).
    Removing stm32f4xx_hal_tim.o(i.HAL_TIM_Base_MspDeInit), (2 bytes).
    Removing stm32f4xx_hal_tim.o(i.HAL_TIM_Base_MspInit), (2 bytes).
    Removing stm32f4xx_hal_tim.o(i.HAL_TIM_Base_Start), (36 bytes).
    Removing stm32f4xx_hal_tim.o(i.HAL_TIM_Base_Start_DMA), (120 bytes).
    Removing stm32f4xx_hal_tim.o(i.HAL_TIM_Base_Stop), (44 bytes).
    Removing stm32f4xx_hal_tim.o(i.HAL_TIM_Base_Stop_DMA), (58 bytes).
    Removing stm32f4xx_hal_tim.o(i.HAL_TIM_ConfigClockSource), (388 bytes).
    Removing stm32f4xx_hal_tim.o(i.HAL_TIM_ConfigOCrefClear), (224 bytes).
    Removing stm32f4xx_hal_tim.o(i.HAL_TIM_ConfigTI1Input), (16 bytes).
    Removing stm32f4xx_hal_tim.o(i.HAL_TIM_DMABurst_ReadStart), (424 bytes).
    Removing stm32f4xx_hal_tim.o(i.HAL_TIM_DMABurst_ReadStop), (108 bytes).
    Removing stm32f4xx_hal_tim.o(i.HAL_TIM_DMABurst_WriteStart), (424 bytes).
    Removing stm32f4xx_hal_tim.o(i.HAL_TIM_DMABurst_WriteStop), (108 bytes).
    Removing stm32f4xx_hal_tim.o(i.HAL_TIM_Encoder_DeInit), (56 bytes).
    Removing stm32f4xx_hal_tim.o(i.HAL_TIM_Encoder_GetState), (6 bytes).
    Removing stm32f4xx_hal_tim.o(i.HAL_TIM_Encoder_Init), (176 bytes).
    Removing stm32f4xx_hal_tim.o(i.HAL_TIM_Encoder_MspDeInit), (2 bytes).
    Removing stm32f4xx_hal_tim.o(i.HAL_TIM_Encoder_MspInit), (2 bytes).
    Removing stm32f4xx_hal_tim.o(i.HAL_TIM_Encoder_Start), (88 bytes).
    Removing stm32f4xx_hal_tim.o(i.HAL_TIM_Encoder_Start_DMA), (368 bytes).
    Removing stm32f4xx_hal_tim.o(i.HAL_TIM_Encoder_Start_IT), (128 bytes).
    Removing stm32f4xx_hal_tim.o(i.HAL_TIM_Encoder_Stop), (92 bytes).
    Removing stm32f4xx_hal_tim.o(i.HAL_TIM_Encoder_Stop_DMA), (164 bytes).
    Removing stm32f4xx_hal_tim.o(i.HAL_TIM_Encoder_Stop_IT), (142 bytes).
    Removing stm32f4xx_hal_tim.o(i.HAL_TIM_ErrorCallback), (2 bytes).
    Removing stm32f4xx_hal_tim.o(i.HAL_TIM_GenerateEvent), (38 bytes).
    Removing stm32f4xx_hal_tim.o(i.HAL_TIM_IC_CaptureHalfCpltCallback), (2 bytes).
    Removing stm32f4xx_hal_tim.o(i.HAL_TIM_IC_ConfigChannel), (458 bytes).
    Removing stm32f4xx_hal_tim.o(i.HAL_TIM_IC_DeInit), (56 bytes).
    Removing stm32f4xx_hal_tim.o(i.HAL_TIM_IC_GetState), (6 bytes).
    Removing stm32f4xx_hal_tim.o(i.HAL_TIM_IC_Init), (54 bytes).
    Removing stm32f4xx_hal_tim.o(i.HAL_TIM_IC_MspDeInit), (2 bytes).
    Removing stm32f4xx_hal_tim.o(i.HAL_TIM_IC_MspInit), (2 bytes).
    Removing stm32f4xx_hal_tim.o(i.HAL_TIM_IC_Start), (46 bytes).
    Removing stm32f4xx_hal_tim.o(i.HAL_TIM_IC_Start_DMA), (276 bytes).
    Removing stm32f4xx_hal_tim.o(i.HAL_TIM_IC_Start_IT), (98 bytes).
    Removing stm32f4xx_hal_tim.o(i.HAL_TIM_IC_Stop), (76 bytes).
    Removing stm32f4xx_hal_tim.o(i.HAL_TIM_IC_Stop_DMA), (146 bytes).
    Removing stm32f4xx_hal_tim.o(i.HAL_TIM_IC_Stop_IT), (128 bytes).
    Removing stm32f4xx_hal_tim.o(i.HAL_TIM_OC_ConfigChannel), (464 bytes).
    Removing stm32f4xx_hal_tim.o(i.HAL_TIM_OC_DeInit), (56 bytes).
    Removing stm32f4xx_hal_tim.o(i.HAL_TIM_OC_GetState), (6 bytes).
    Removing stm32f4xx_hal_tim.o(i.HAL_TIM_OC_Init), (54 bytes).
    Removing stm32f4xx_hal_tim.o(i.HAL_TIM_OC_MspDeInit), (2 bytes).
    Removing stm32f4xx_hal_tim.o(i.HAL_TIM_OC_MspInit), (2 bytes).
    Removing stm32f4xx_hal_tim.o(i.HAL_TIM_OC_Start), (76 bytes).
    Removing stm32f4xx_hal_tim.o(i.HAL_TIM_OC_Start_DMA), (316 bytes).
    Removing stm32f4xx_hal_tim.o(i.HAL_TIM_OC_Start_IT), (128 bytes).
    Removing stm32f4xx_hal_tim.o(i.HAL_TIM_OC_Stop), (130 bytes).
    Removing stm32f4xx_hal_tim.o(i.HAL_TIM_OC_Stop_DMA), (204 bytes).
    Removing stm32f4xx_hal_tim.o(i.HAL_TIM_OC_Stop_IT), (182 bytes).
    Removing stm32f4xx_hal_tim.o(i.HAL_TIM_OnePulse_ConfigChannel), (564 bytes).
    Removing stm32f4xx_hal_tim.o(i.HAL_TIM_OnePulse_DeInit), (56 bytes).
    Removing stm32f4xx_hal_tim.o(i.HAL_TIM_OnePulse_GetState), (6 bytes).
    Removing stm32f4xx_hal_tim.o(i.HAL_TIM_OnePulse_Init), (74 bytes).
    Removing stm32f4xx_hal_tim.o(i.HAL_TIM_OnePulse_MspDeInit), (2 bytes).
    Removing stm32f4xx_hal_tim.o(i.HAL_TIM_OnePulse_MspInit), (2 bytes).
    Removing stm32f4xx_hal_tim.o(i.HAL_TIM_OnePulse_Start), (70 bytes).
    Removing stm32f4xx_hal_tim.o(i.HAL_TIM_OnePulse_Start_IT), (90 bytes).
    Removing stm32f4xx_hal_tim.o(i.HAL_TIM_OnePulse_Stop), (114 bytes).
    Removing stm32f4xx_hal_tim.o(i.HAL_TIM_OnePulse_Stop_IT), (134 bytes).
    Removing stm32f4xx_hal_tim.o(i.HAL_TIM_PWM_ConfigChannel), (592 bytes).
    Removing stm32f4xx_hal_tim.o(i.HAL_TIM_PWM_DeInit), (56 bytes).
    Removing stm32f4xx_hal_tim.o(i.HAL_TIM_PWM_GetState), (6 bytes).
    Removing stm32f4xx_hal_tim.o(i.HAL_TIM_PWM_Init), (54 bytes).
    Removing stm32f4xx_hal_tim.o(i.HAL_TIM_PWM_MspDeInit), (2 bytes).
    Removing stm32f4xx_hal_tim.o(i.HAL_TIM_PWM_MspInit), (2 bytes).
    Removing stm32f4xx_hal_tim.o(i.HAL_TIM_PWM_PulseFinishedHalfCpltCallback), (2 bytes).
    Removing stm32f4xx_hal_tim.o(i.HAL_TIM_PWM_Start), (76 bytes).
    Removing stm32f4xx_hal_tim.o(i.HAL_TIM_PWM_Start_DMA), (316 bytes).
    Removing stm32f4xx_hal_tim.o(i.HAL_TIM_PWM_Start_IT), (128 bytes).
    Removing stm32f4xx_hal_tim.o(i.HAL_TIM_PWM_Stop), (116 bytes).
    Removing stm32f4xx_hal_tim.o(i.HAL_TIM_PWM_Stop_DMA), (204 bytes).
    Removing stm32f4xx_hal_tim.o(i.HAL_TIM_PWM_Stop_IT), (182 bytes).
    Removing stm32f4xx_hal_tim.o(i.HAL_TIM_PeriodElapsedCallback), (2 bytes).
    Removing stm32f4xx_hal_tim.o(i.HAL_TIM_PeriodElapsedHalfCpltCallback), (2 bytes).
    Removing stm32f4xx_hal_tim.o(i.HAL_TIM_ReadCapturedValue), (44 bytes).
    Removing stm32f4xx_hal_tim.o(i.HAL_TIM_SlaveConfigSynchro), (86 bytes).
    Removing stm32f4xx_hal_tim.o(i.HAL_TIM_SlaveConfigSynchro_IT), (86 bytes).
    Removing stm32f4xx_hal_tim.o(i.HAL_TIM_TriggerHalfCpltCallback), (2 bytes).
    Removing stm32f4xx_hal_tim.o(i.TIM_CCxChannelCmd), (30 bytes).
    Removing stm32f4xx_hal_tim.o(i.TIM_DMACaptureCplt), (66 bytes).
    Removing stm32f4xx_hal_tim.o(i.TIM_DMACaptureHalfCplt), (66 bytes).
    Removing stm32f4xx_hal_tim.o(i.TIM_DMADelayPulseCplt), (66 bytes).
    Removing stm32f4xx_hal_tim.o(i.TIM_DMADelayPulseHalfCplt), (66 bytes).
    Removing stm32f4xx_hal_tim.o(i.TIM_DMAError), (16 bytes).
    Removing stm32f4xx_hal_tim.o(i.TIM_DMAPeriodElapsedCplt), (16 bytes).
    Removing stm32f4xx_hal_tim.o(i.TIM_DMAPeriodElapsedHalfCplt), (16 bytes).
    Removing stm32f4xx_hal_tim.o(i.TIM_DMATriggerCplt), (16 bytes).
    Removing stm32f4xx_hal_tim.o(i.TIM_DMATriggerHalfCplt), (16 bytes).
    Removing stm32f4xx_hal_tim.o(i.TIM_ETR_SetConfig), (22 bytes).
    Removing stm32f4xx_hal_tim.o(i.TIM_OC2_SetConfig), (112 bytes).
    Removing stm32f4xx_hal_tim.o(i.TIM_SlaveTimer_SetConfig), (222 bytes).
    Removing stm32f4xx_hal_tim.o(i.TIM_TI1_SetConfig), (140 bytes).
    Removing stm32f4xx_hal_tim_ex.o(.rev16_text), (4 bytes).
    Removing stm32f4xx_hal_tim_ex.o(.revsh_text), (4 bytes).
    Removing stm32f4xx_hal_tim_ex.o(.rrx_text), (6 bytes).
    Removing stm32f4xx_hal_tim_ex.o(i.HAL_TIMEx_CommutHalfCpltCallback), (2 bytes).
    Removing stm32f4xx_hal_tim_ex.o(i.HAL_TIMEx_ConfigBreakDeadTime), (82 bytes).
    Removing stm32f4xx_hal_tim_ex.o(i.HAL_TIMEx_ConfigCommutEvent), (122 bytes).
    Removing stm32f4xx_hal_tim_ex.o(i.HAL_TIMEx_ConfigCommutEvent_DMA), (152 bytes).
    Removing stm32f4xx_hal_tim_ex.o(i.HAL_TIMEx_ConfigCommutEvent_IT), (122 bytes).
    Removing stm32f4xx_hal_tim_ex.o(i.HAL_TIMEx_HallSensor_DeInit), (56 bytes).
    Removing stm32f4xx_hal_tim_ex.o(i.HAL_TIMEx_HallSensor_GetState), (6 bytes).
    Removing stm32f4xx_hal_tim_ex.o(i.HAL_TIMEx_HallSensor_Init), (188 bytes).
    Removing stm32f4xx_hal_tim_ex.o(i.HAL_TIMEx_HallSensor_MspDeInit), (2 bytes).
    Removing stm32f4xx_hal_tim_ex.o(i.HAL_TIMEx_HallSensor_MspInit), (2 bytes).
    Removing stm32f4xx_hal_tim_ex.o(i.HAL_TIMEx_HallSensor_Start), (38 bytes).
    Removing stm32f4xx_hal_tim_ex.o(i.HAL_TIMEx_HallSensor_Start_DMA), (132 bytes).
    Removing stm32f4xx_hal_tim_ex.o(i.HAL_TIMEx_HallSensor_Start_IT), (48 bytes).
    Removing stm32f4xx_hal_tim_ex.o(i.HAL_TIMEx_HallSensor_Stop), (46 bytes).
    Removing stm32f4xx_hal_tim_ex.o(i.HAL_TIMEx_HallSensor_Stop_DMA), (62 bytes).
    Removing stm32f4xx_hal_tim_ex.o(i.HAL_TIMEx_HallSensor_Stop_IT), (56 bytes).
    Removing stm32f4xx_hal_tim_ex.o(i.HAL_TIMEx_OCN_Start), (56 bytes).
    Removing stm32f4xx_hal_tim_ex.o(i.HAL_TIMEx_OCN_Start_DMA), (248 bytes).
    Removing stm32f4xx_hal_tim_ex.o(i.HAL_TIMEx_OCN_Start_IT), (110 bytes).
    Removing stm32f4xx_hal_tim_ex.o(i.HAL_TIMEx_OCN_Stop), (108 bytes).
    Removing stm32f4xx_hal_tim_ex.o(i.HAL_TIMEx_OCN_Stop_DMA), (158 bytes).
    Removing stm32f4xx_hal_tim_ex.o(i.HAL_TIMEx_OCN_Stop_IT), (176 bytes).
    Removing stm32f4xx_hal_tim_ex.o(i.HAL_TIMEx_OnePulseN_Start), (36 bytes).
    Removing stm32f4xx_hal_tim_ex.o(i.HAL_TIMEx_OnePulseN_Start_IT), (56 bytes).
    Removing stm32f4xx_hal_tim_ex.o(i.HAL_TIMEx_OnePulseN_Stop), (108 bytes).
    Removing stm32f4xx_hal_tim_ex.o(i.HAL_TIMEx_OnePulseN_Stop_IT), (128 bytes).
    Removing stm32f4xx_hal_tim_ex.o(i.HAL_TIMEx_PWMN_Start), (56 bytes).
    Removing stm32f4xx_hal_tim_ex.o(i.HAL_TIMEx_PWMN_Start_DMA), (248 bytes).
    Removing stm32f4xx_hal_tim_ex.o(i.HAL_TIMEx_PWMN_Start_IT), (110 bytes).
    Removing stm32f4xx_hal_tim_ex.o(i.HAL_TIMEx_PWMN_Stop), (108 bytes).
    Removing stm32f4xx_hal_tim_ex.o(i.HAL_TIMEx_PWMN_Stop_DMA), (158 bytes).
    Removing stm32f4xx_hal_tim_ex.o(i.HAL_TIMEx_PWMN_Stop_IT), (176 bytes).
    Removing stm32f4xx_hal_tim_ex.o(i.HAL_TIMEx_RemapConfig), (28 bytes).
    Removing stm32f4xx_hal_tim_ex.o(i.TIMEx_DMACommutationCplt), (16 bytes).
    Removing stm32f4xx_hal_tim_ex.o(i.TIMEx_DMACommutationHalfCplt), (16 bytes).
    Removing stm32f4xx_hal_uart.o(.rev16_text), (4 bytes).
    Removing stm32f4xx_hal_uart.o(.revsh_text), (4 bytes).
    Removing stm32f4xx_hal_uart.o(.rrx_text), (6 bytes).
    Removing stm32f4xx_hal_uart.o(i.HAL_HalfDuplex_EnableReceiver), (54 bytes).
    Removing stm32f4xx_hal_uart.o(i.HAL_HalfDuplex_EnableTransmitter), (54 bytes).
    Removing stm32f4xx_hal_uart.o(i.HAL_HalfDuplex_Init), (110 bytes).
    Removing stm32f4xx_hal_uart.o(i.HAL_LIN_Init), (130 bytes).
    Removing stm32f4xx_hal_uart.o(i.HAL_LIN_SendBreak), (62 bytes).
    Removing stm32f4xx_hal_uart.o(i.HAL_MultiProcessor_EnterMuteMode), (64 bytes).
    Removing stm32f4xx_hal_uart.o(i.HAL_MultiProcessor_ExitMuteMode), (64 bytes).
    Removing stm32f4xx_hal_uart.o(i.HAL_MultiProcessor_Init), (144 bytes).
    Removing stm32f4xx_hal_uart.o(i.HAL_UARTEx_GetRxEventType), (4 bytes).
    Removing stm32f4xx_hal_uart.o(i.HAL_UARTEx_ReceiveToIdle), (282 bytes).
    Removing stm32f4xx_hal_uart.o(i.HAL_UARTEx_ReceiveToIdle_DMA), (94 bytes).
    Removing stm32f4xx_hal_uart.o(i.HAL_UARTEx_ReceiveToIdle_IT), (144 bytes).
    Removing stm32f4xx_hal_uart.o(i.HAL_UART_Abort), (224 bytes).
    Removing stm32f4xx_hal_uart.o(i.HAL_UART_AbortCpltCallback), (2 bytes).
    Removing stm32f4xx_hal_uart.o(i.HAL_UART_AbortReceiveCpltCallback), (2 bytes).
    Removing stm32f4xx_hal_uart.o(i.HAL_UART_AbortReceive_IT), (160 bytes).
    Removing stm32f4xx_hal_uart.o(i.HAL_UART_AbortTransmit), (104 bytes).
    Removing stm32f4xx_hal_uart.o(i.HAL_UART_AbortTransmitCpltCallback), (2 bytes).
    Removing stm32f4xx_hal_uart.o(i.HAL_UART_AbortTransmit_IT), (108 bytes).
    Removing stm32f4xx_hal_uart.o(i.HAL_UART_Abort_IT), (256 bytes).
    Removing stm32f4xx_hal_uart.o(i.HAL_UART_DMAPause), (122 bytes).
    Removing stm32f4xx_hal_uart.o(i.HAL_UART_DMAResume), (120 bytes).
    Removing stm32f4xx_hal_uart.o(i.HAL_UART_GetError), (4 bytes).
    Removing stm32f4xx_hal_uart.o(i.HAL_UART_GetState), (12 bytes).
    Removing stm32f4xx_hal_uart.o(i.HAL_UART_MspDeInit), (2 bytes).
    Removing stm32f4xx_hal_uart.o(i.HAL_UART_MspInit), (2 bytes).
    Removing stm32f4xx_hal_uart.o(i.HAL_UART_Receive), (354 bytes).
    Removing stm32f4xx_hal_uart.o(i.HAL_UART_RxCpltCallback), (2 bytes).
    Removing stm32f4xx_hal_uart.o(i.HAL_UART_Transmit_DMA), (144 bytes).
    Removing stm32f4xx_hal_uart.o(i.HAL_UART_Transmit_IT), (58 bytes).
    Removing stm32f4xx_hal_uart.o(i.HAL_UART_TxHalfCpltCallback), (2 bytes).
    Removing stm32f4xx_hal_uart.o(i.UART_DMARxAbortCallback), (48 bytes).
    Removing stm32f4xx_hal_uart.o(i.UART_DMARxOnlyAbortCallback), (22 bytes).
    Removing stm32f4xx_hal_uart.o(i.UART_DMATransmitCplt), (74 bytes).
    Removing stm32f4xx_hal_uart.o(i.UART_DMATxAbortCallback), (48 bytes).
    Removing stm32f4xx_hal_uart.o(i.UART_DMATxHalfCplt), (10 bytes).
    Removing stm32f4xx_hal_uart.o(i.UART_DMATxOnlyAbortCallback), (20 bytes).
    Removing stm32f4xx_hal_uart.o(i.UART_Start_Receive_IT), (54 bytes).
    Removing system_stm32f4xx.o(.rev16_text), (4 bytes).
    Removing system_stm32f4xx.o(.revsh_text), (4 bytes).
    Removing system_stm32f4xx.o(.rrx_text), (6 bytes).
    Removing system_stm32f4xx.o(i.SystemCoreClockUpdate), (136 bytes).
    Removing can_receive.o(.rev16_text), (4 bytes).
    Removing can_receive.o(.revsh_text), (4 bytes).
    Removing can_receive.o(.rrx_text), (6 bytes).
    Removing can_receive.o(i.get_chassis_motor_measure_point), (20 bytes).
    Removing can_receive.o(i.get_pitch_gimbal_motor_measure_point), (8 bytes).
    Removing can_receive.o(i.get_trigger_motor_measure_point), (8 bytes).
    Removing can_receive.o(i.get_yaw_gimbal_motor_measure_point), (8 bytes).
    Removing can_receive.o(.data), (4 bytes).
    Removing can_receive.o(.data), (4 bytes).
    Removing can_receive.o(.data), (4 bytes).
    Removing can.o(.rev16_text), (4 bytes).
    Removing can.o(.revsh_text), (4 bytes).
    Removing can.o(.rrx_text), (6 bytes).
    Removing sbus.o(.rev16_text), (4 bytes).
    Removing sbus.o(.revsh_text), (4 bytes).
    Removing sbus.o(.rrx_text), (6 bytes).
    Removing sbus.o(i.Memset), (46 bytes).
    Removing sbus.o(i.reset_uart), (48 bytes).
    Removing sbus.o(i.reverse_bytes), (30 bytes).
    Removing sbus.o(.data), (1 bytes).
    Removing sbus.o(.data), (4 bytes).
    Removing sbus.o(.data), (4 bytes).
    Removing usart.o(.rev16_text), (4 bytes).
    Removing usart.o(.revsh_text), (4 bytes).
    Removing usart.o(.rrx_text), (6 bytes).
    Removing usart.o(.data), (1 bytes).
    Removing pid.o(.rev16_text), (4 bytes).
    Removing pid.o(.revsh_text), (4 bytes).
    Removing pid.o(.rrx_text), (6 bytes).
    Removing pid.o(i.pid_set), (56 bytes).
    Removing chassis.o(.rev16_text), (4 bytes).
    Removing chassis.o(.revsh_text), (4 bytes).
    Removing chassis.o(.rrx_text), (6 bytes).
    Removing chassis.o(i.Ded_Limit), (2 bytes).
    Removing chassis.o(i.Scale), (46 bytes).
    Removing chassis.o(i.angle_to_ecd), (40 bytes).
    Removing chassis.o(.bss), (12 bytes).
    Removing chassis.o(.data), (4 bytes).
    Removing chassis.o(.data), (4 bytes).
    Removing chassis.o(.data), (4 bytes).
    Removing chassis.o(.data), (4 bytes).
    Removing chassis.o(.data), (4 bytes).
    Removing chassis.o(.data), (4 bytes).
    Removing chassis.o(.data), (1 bytes).
    Removing chassis.o(.data), (4 bytes).
    Removing chassis.o(.data), (8 bytes).
    Removing chassis.o(.data), (8 bytes).
    Removing chassis.o(.data), (8 bytes).
    Removing niming.o(.rev16_text), (4 bytes).
    Removing niming.o(.revsh_text), (4 bytes).
    Removing niming.o(.rrx_text), (6 bytes).
    Removing niming.o(i.send_sensorData), (78 bytes).
    Removing niming.o(i.usart_niming_report), (264 bytes).
    Removing superstratum.o(.rev16_text), (4 bytes).
    Removing superstratum.o(.revsh_text), (4 bytes).
    Removing superstratum.o(.rrx_text), (6 bytes).
    Removing superstratum.o(i.angle_limit), (34 bytes).
    Removing superstratum.o(.data), (4 bytes).
    Removing superstratum.o(.data), (2 bytes).
    Removing superstratum.o(.data), (4 bytes).
    Removing mode_choic.o(.rev16_text), (4 bytes).
    Removing mode_choic.o(.revsh_text), (4 bytes).
    Removing mode_choic.o(.rrx_text), (6 bytes).
    Removing auto.o(.rev16_text), (4 bytes).
    Removing auto.o(.revsh_text), (4 bytes).
    Removing auto.o(.rrx_text), (6 bytes).
    Removing auto.o(i.Auto_init), (48 bytes).
    Removing auto.o(i.Key_judgement), (112 bytes).
    Removing auto.o(i.calculate_auto_tar_angle), (184 bytes).
    Removing auto.o(i.map_value), (30 bytes).
    Removing auto.o(.data), (1 bytes).
    Removing auto.o(.data), (1 bytes).
    Removing auto.o(.data), (1 bytes).
    Removing auto.o(.data), (1 bytes).
    Removing auto.o(.data), (1 bytes).
    Removing auto.o(.data), (1 bytes).
    Removing auto.o(.data), (1 bytes).
    Removing auto.o(.data), (4 bytes).
    Removing auto.o(.data), (1 bytes).
    Removing auto.o(.data), (8 bytes).
    Removing auto.o(.data), (1 bytes).
    Removing auto.o(.data), (1 bytes).
    Removing auto.o(.data), (4 bytes).
    Removing auto.o(.data), (1 bytes).
    Removing auto.o(.data), (4 bytes).
    Removing auto.o(.data), (4 bytes).
    Removing auto.o(.data), (4 bytes).
    Removing auto.o(.data), (4 bytes).
    Removing auto.o(.data), (4 bytes).
    Removing auto.o(.data), (4 bytes).
    Removing auto.o(.data), (4 bytes).
    Removing auto.o(.data), (4 bytes).
    Removing auto.o(.data), (4 bytes).
    Removing auto.o(.data), (4 bytes).
    Removing auto.o(.data), (4 bytes).
    Removing auto.o(.data), (4 bytes).
    Removing auto.o(.data), (4 bytes).
    Removing auto.o(.data), (8 bytes).
    Removing auto.o(.data), (8 bytes).
    Removing auto.o(.data), (1 bytes).
    Removing auto.o(.data), (1 bytes).
    Removing auto.o(.data), (1 bytes).
    Removing auto.o(.data), (1 bytes).
    Removing auto.o(.data), (4 bytes).
    Removing auto.o(.data), (4 bytes).
    Removing auto.o(.data), (1 bytes).
    Removing auto.o(.data), (8 bytes).
    Removing auto.o(.data), (4 bytes).
    Removing auto.o(.data), (4 bytes).
    Removing auto.o(.data), (4 bytes).
    Removing auto.o(.data), (4 bytes).
    Removing auto.o(.data), (4 bytes).
    Removing auto.o(.data), (4 bytes).
    Removing auto.o(.data), (4 bytes).
    Removing auto.o(.data), (4 bytes).
    Removing auto.o(.data), (4 bytes).
    Removing auto.o(.data), (4 bytes).
    Removing auto.o(.data), (4 bytes).
    Removing add.o(.rev16_text), (4 bytes).
    Removing add.o(.revsh_text), (4 bytes).
    Removing add.o(.rrx_text), (6 bytes).
    Removing add.o(.data), (1 bytes).
    Removing hwt101.o(.rev16_text), (4 bytes).
    Removing hwt101.o(.revsh_text), (4 bytes).
    Removing hwt101.o(.rrx_text), (6 bytes).
    Removing hwt101.o(i.Data_reception), (88 bytes).
    Removing hwt101.o(i.Data_reception_DMA_only), (92 bytes).
    Removing hwt101.o(i.SET_configure), (8 bytes).
    Removing hwt101.o(i.SYSTEM_Init_most), (56 bytes).
    Removing hwt101.o(.data), (5 bytes).
    Removing hwt101.o(.data), (5 bytes).
    Removing hwt101.o(.data), (5 bytes).
    Removing hwt101.o(.data), (5 bytes).
    Removing hwt101.o(.data), (5 bytes).
    Removing hwt101.o(.data), (5 bytes).
    Removing hwt101.o(.data), (5 bytes).
    Removing hwt101.o(.data), (5 bytes).
    Removing hwt101.o(.data), (5 bytes).
    Removing hwt101.o(.data), (5 bytes).
    Removing hwt101.o(.data), (5 bytes).
    Removing hwt101.o(.data), (5 bytes).
    Removing hwt101.o(.data), (5 bytes).
    Removing hwt101.o(.data), (5 bytes).
    Removing hwt101.o(.data), (5 bytes).
    Removing event_groups.o(i.vEventGroupClearBitsCallback), (64 bytes).
    Removing event_groups.o(i.vEventGroupDelete), (78 bytes).
    Removing event_groups.o(i.vEventGroupSetBitsCallback), (4 bytes).
    Removing event_groups.o(i.xEventGroupClearBits), (66 bytes).
    Removing event_groups.o(i.xEventGroupCreate), (28 bytes).
    Removing event_groups.o(i.xEventGroupCreateStatic), (44 bytes).
    Removing event_groups.o(i.xEventGroupGetBitsFromISR), (26 bytes).
    Removing event_groups.o(i.xEventGroupSetBits), (148 bytes).
    Removing event_groups.o(i.xEventGroupSync), (208 bytes).
    Removing event_groups.o(i.xEventGroupWaitBits), (276 bytes).
    Removing queue.o(i.pcQueueGetName), (92 bytes).
    Removing queue.o(i.prvUnlockQueue), (108 bytes).
    Removing queue.o(i.uxQueueMessagesWaiting), (36 bytes).
    Removing queue.o(i.uxQueueMessagesWaitingFromISR), (24 bytes).
    Removing queue.o(i.uxQueueSpacesAvailable), (40 bytes).
    Removing queue.o(i.vQueueAddToRegistry), (40 bytes).
    Removing queue.o(i.vQueueDelete), (80 bytes).
    Removing queue.o(i.vQueueUnregisterQueue), (40 bytes).
    Removing queue.o(i.xQueueCreateMutex), (108 bytes).
    Removing queue.o(i.xQueueCreateMutexStatic), (40 bytes).
    Removing queue.o(i.xQueueGenericCreate), (132 bytes).
    Removing queue.o(i.xQueueGenericCreateStatic), (178 bytes).
    Removing queue.o(i.xQueueGenericReset), (136 bytes).
    Removing queue.o(i.xQueueGenericSend), (468 bytes).
    Removing queue.o(i.xQueueGenericSendFromISR), (284 bytes).
    Removing queue.o(i.xQueueGiveFromISR), (158 bytes).
    Removing queue.o(i.xQueueIsQueueEmptyFromISR), (30 bytes).
    Removing queue.o(i.xQueueIsQueueFullFromISR), (32 bytes).
    Removing queue.o(i.xQueuePeek), (340 bytes).
    Removing queue.o(i.xQueuePeekFromISR), (136 bytes).
    Removing queue.o(i.xQueueReceive), (344 bytes).
    Removing queue.o(i.xQueueReceiveFromISR), (174 bytes).
    Removing queue.o(i.xQueueSemaphoreTake), (412 bytes).
    Removing queue.o(.bss), (64 bytes).
    Removing stream_buffer.o(i.prvReadBytesFromBuffer), (140 bytes).
    Removing stream_buffer.o(i.prvWriteMessageToBuffer), (278 bytes).
    Removing stream_buffer.o(i.vStreamBufferDelete), (50 bytes).
    Removing stream_buffer.o(i.xStreamBufferBytesAvailable), (36 bytes).
    Removing stream_buffer.o(i.xStreamBufferGenericCreate), (158 bytes).
    Removing stream_buffer.o(i.xStreamBufferGenericCreateStatic), (170 bytes).
    Removing stream_buffer.o(i.xStreamBufferIsEmpty), (32 bytes).
    Removing stream_buffer.o(i.xStreamBufferIsFull), (58 bytes).
    Removing stream_buffer.o(i.xStreamBufferNextMessageLengthBytes), (94 bytes).
    Removing stream_buffer.o(i.xStreamBufferReceive), (280 bytes).
    Removing stream_buffer.o(i.xStreamBufferReceiveCompletedFromISR), (70 bytes).
    Removing stream_buffer.o(i.xStreamBufferReceiveFromISR), (192 bytes).
    Removing stream_buffer.o(i.xStreamBufferReset), (124 bytes).
    Removing stream_buffer.o(i.xStreamBufferSend), (310 bytes).
    Removing stream_buffer.o(i.xStreamBufferSendCompletedFromISR), (70 bytes).
    Removing stream_buffer.o(i.xStreamBufferSendFromISR), (162 bytes).
    Removing stream_buffer.o(i.xStreamBufferSetTriggerLevel), (38 bytes).
    Removing stream_buffer.o(i.xStreamBufferSpacesAvailable), (38 bytes).
    Removing tasks.o(i.pcTaskGetName), (36 bytes).
    Removing tasks.o(i.pvTaskIncrementMutexHeldCount), (24 bytes).
    Removing tasks.o(i.ulTaskNotifyTake), (108 bytes).
    Removing tasks.o(i.ulTaskNotifyValueClear), (44 bytes).
    Removing tasks.o(i.uxTaskGetNumberOfTasks), (12 bytes).
    Removing tasks.o(i.uxTaskPriorityGet), (32 bytes).
    Removing tasks.o(i.uxTaskPriorityGetFromISR), (48 bytes).
    Removing tasks.o(i.uxTaskResetEventItemValue), (24 bytes).
    Removing tasks.o(i.vTaskDelete), (252 bytes).
    Removing tasks.o(i.vTaskEndScheduler), (28 bytes).
    Removing tasks.o(i.vTaskInternalSetTimeOutState), (16 bytes).
    Removing tasks.o(i.vTaskMissedYield), (12 bytes).
    Removing tasks.o(i.vTaskNotifyGiveFromISR), (188 bytes).
    Removing tasks.o(i.vTaskPlaceOnEventList), (52 bytes).
    Removing tasks.o(i.vTaskPlaceOnUnorderedEventList), (84 bytes).
    Removing tasks.o(i.vTaskPriorityDisinheritAfterTimeout), (172 bytes).
    Removing tasks.o(i.vTaskPrioritySet), (208 bytes).
    Removing tasks.o(i.vTaskRemoveFromUnorderedEventList), (112 bytes).
    Removing tasks.o(i.vTaskResume), (140 bytes).
    Removing tasks.o(i.vTaskSetTimeOutState), (48 bytes).
    Removing tasks.o(i.vTaskSuspend), (300 bytes).
    Removing tasks.o(i.xTaskCatchUpTicks), (44 bytes).
    Removing tasks.o(i.xTaskCheckForTimeOut), (128 bytes).
    Removing tasks.o(i.xTaskGenericNotify), (232 bytes).
    Removing tasks.o(i.xTaskGenericNotifyFromISR), (276 bytes).
    Removing tasks.o(i.xTaskGetCurrentTaskHandle), (12 bytes).
    Removing tasks.o(i.xTaskNotifyStateClear), (48 bytes).
    Removing tasks.o(i.xTaskNotifyWait), (144 bytes).
    Removing tasks.o(i.xTaskPriorityDisinherit), (156 bytes).
    Removing tasks.o(i.xTaskPriorityInherit), (144 bytes).
    Removing tasks.o(i.xTaskRemoveFromEventList), (120 bytes).
    Removing tasks.o(i.xTaskResumeFromISR), (156 bytes).
    Removing heap_4.o(i.vPortGetHeapStats), (120 bytes).
    Removing heap_4.o(i.vPortInitialiseBlocks), (2 bytes).
    Removing heap_4.o(i.xPortGetFreeHeapSize), (12 bytes).
    Removing heap_4.o(i.xPortGetMinimumEverFreeHeapSize), (12 bytes).
    Removing port.o(i.vPortEndScheduler), (32 bytes).
    Removing cmsis_os.o(.rev16_text), (4 bytes).
    Removing cmsis_os.o(.revsh_text), (4 bytes).
    Removing cmsis_os.o(.rrx_text), (6 bytes).
    Removing cmsis_os.o(i.osAbortDelay), (4 bytes).
    Removing cmsis_os.o(i.osDelayUntil), (4 bytes).
    Removing cmsis_os.o(i.osKernelRunning), (16 bytes).
    Removing cmsis_os.o(i.osMailAlloc), (136 bytes).
    Removing cmsis_os.o(i.osMailCAlloc), (198 bytes).
    Removing cmsis_os.o(i.osMailCreate), (192 bytes).
    Removing cmsis_os.o(i.osMailFree), (68 bytes).
    Removing cmsis_os.o(i.osMailGet), (156 bytes).
    Removing cmsis_os.o(i.osMailPut), (92 bytes).
    Removing cmsis_os.o(i.osMessageAvailableSpace), (4 bytes).
    Removing cmsis_os.o(i.osMessageCreate), (46 bytes).
    Removing cmsis_os.o(i.osMessageDelete), (22 bytes).
    Removing cmsis_os.o(i.osMessageGet), (156 bytes).
    Removing cmsis_os.o(i.osMessagePeek), (92 bytes).
    Removing cmsis_os.o(i.osMessagePut), (84 bytes).
    Removing cmsis_os.o(i.osMessageWaiting), (14 bytes).
    Removing cmsis_os.o(i.osMutexCreate), (16 bytes).
    Removing cmsis_os.o(i.osMutexDelete), (22 bytes).
    Removing cmsis_os.o(i.osMutexRelease), (84 bytes).
    Removing cmsis_os.o(i.osMutexWait), (100 bytes).
    Removing cmsis_os.o(i.osPoolAlloc), (128 bytes).
    Removing cmsis_os.o(i.osPoolCAlloc), (138 bytes).
    Removing cmsis_os.o(i.osPoolCreate), (122 bytes).
    Removing cmsis_os.o(i.osPoolFree), (52 bytes).
    Removing cmsis_os.o(i.osRecursiveMutexCreate), (4 bytes).
    Removing cmsis_os.o(i.osRecursiveMutexRelease), (4 bytes).
    Removing cmsis_os.o(i.osRecursiveMutexWait), (4 bytes).
    Removing cmsis_os.o(i.osSemaphoreCreate), (62 bytes).
    Removing cmsis_os.o(i.osSemaphoreDelete), (22 bytes).
    Removing cmsis_os.o(i.osSemaphoreGetCount), (4 bytes).
    Removing cmsis_os.o(i.osSemaphoreRelease), (84 bytes).
    Removing cmsis_os.o(i.osSemaphoreWait), (100 bytes).
    Removing cmsis_os.o(i.osSignalSet), (88 bytes).
    Removing cmsis_os.o(i.osSignalWait), (102 bytes).
    Removing cmsis_os.o(i.osSystickHandler), (20 bytes).
    Removing cmsis_os.o(i.osThreadGetId), (4 bytes).
    Removing cmsis_os.o(i.osThreadGetPriority), (42 bytes).
    Removing cmsis_os.o(i.osThreadList), (4 bytes).
    Removing cmsis_os.o(i.osThreadResume), (48 bytes).
    Removing cmsis_os.o(i.osThreadResumeAll), (16 bytes).
    Removing cmsis_os.o(i.osThreadSetPriority), (20 bytes).
    Removing cmsis_os.o(i.osThreadSuspend), (10 bytes).
    Removing cmsis_os.o(i.osThreadSuspendAll), (10 bytes).
    Removing cmsis_os.o(i.osThreadTerminate), (10 bytes).
    Removing cmsis_os.o(i.osThreadYield), (24 bytes).
    Removing cmsis_os.o(i.osTimerCreate), (4 bytes).
    Removing cmsis_os.o(i.osTimerDelete), (4 bytes).
    Removing cmsis_os.o(i.osTimerStart), (4 bytes).
    Removing cmsis_os.o(i.osTimerStop), (4 bytes).
    Removing dneg.o(.text), (6 bytes).
    Removing dfltui.o(.text), (26 bytes).

683 unused section(s) (total 43385 bytes) removed from the image.

==============================================================================

Image Symbol Table

    Local Symbols

    Symbol Name                              Value     Ov Type        Size  Object(Section)

    ../Core/Src/main.c                       0x00000000   Number         0  main.o ABSOLUTE
    ../Core/Src/stm32f4xx_hal_msp.c          0x00000000   Number         0  stm32f4xx_hal_msp.o ABSOLUTE
    ../Core/Src/stm32f4xx_it.c               0x00000000   Number         0  stm32f4xx_it.o ABSOLUTE
    ../Core/Src/system_stm32f4xx.c           0x00000000   Number         0  system_stm32f4xx.o ABSOLUTE
    ../Drivers/STM32F4xx_HAL_Driver/Src/stm32f4xx_hal.c 0x00000000   Number         0  stm32f4xx_hal.o ABSOLUTE
    ../Drivers/STM32F4xx_HAL_Driver/Src/stm32f4xx_hal_can.c 0x00000000   Number         0  stm32f4xx_hal_can.o ABSOLUTE
    ../Drivers/STM32F4xx_HAL_Driver/Src/stm32f4xx_hal_cortex.c 0x00000000   Number         0  stm32f4xx_hal_cortex.o ABSOLUTE
    ../Drivers/STM32F4xx_HAL_Driver/Src/stm32f4xx_hal_dma.c 0x00000000   Number         0  stm32f4xx_hal_dma.o ABSOLUTE
    ../Drivers/STM32F4xx_HAL_Driver/Src/stm32f4xx_hal_dma_ex.c 0x00000000   Number         0  stm32f4xx_hal_dma_ex.o ABSOLUTE
    ../Drivers/STM32F4xx_HAL_Driver/Src/stm32f4xx_hal_exti.c 0x00000000   Number         0  stm32f4xx_hal_exti.o ABSOLUTE
    ../Drivers/STM32F4xx_HAL_Driver/Src/stm32f4xx_hal_flash.c 0x00000000   Number         0  stm32f4xx_hal_flash.o ABSOLUTE
    ../Drivers/STM32F4xx_HAL_Driver/Src/stm32f4xx_hal_flash_ex.c 0x00000000   Number         0  stm32f4xx_hal_flash_ex.o ABSOLUTE
    ../Drivers/STM32F4xx_HAL_Driver/Src/stm32f4xx_hal_flash_ramfunc.c 0x00000000   Number         0  stm32f4xx_hal_flash_ramfunc.o ABSOLUTE
    ../Drivers/STM32F4xx_HAL_Driver/Src/stm32f4xx_hal_gpio.c 0x00000000   Number         0  stm32f4xx_hal_gpio.o ABSOLUTE
    ../Drivers/STM32F4xx_HAL_Driver/Src/stm32f4xx_hal_pwr.c 0x00000000   Number         0  stm32f4xx_hal_pwr.o ABSOLUTE
    ../Drivers/STM32F4xx_HAL_Driver/Src/stm32f4xx_hal_pwr_ex.c 0x00000000   Number         0  stm32f4xx_hal_pwr_ex.o ABSOLUTE
    ../Drivers/STM32F4xx_HAL_Driver/Src/stm32f4xx_hal_rcc.c 0x00000000   Number         0  stm32f4xx_hal_rcc.o ABSOLUTE
    ../Drivers/STM32F4xx_HAL_Driver/Src/stm32f4xx_hal_rcc_ex.c 0x00000000   Number         0  stm32f4xx_hal_rcc_ex.o ABSOLUTE
    ../Drivers/STM32F4xx_HAL_Driver/Src/stm32f4xx_hal_tim.c 0x00000000   Number         0  stm32f4xx_hal_tim.o ABSOLUTE
    ../Drivers/STM32F4xx_HAL_Driver/Src/stm32f4xx_hal_tim_ex.c 0x00000000   Number         0  stm32f4xx_hal_tim_ex.o ABSOLUTE
    ../Drivers/STM32F4xx_HAL_Driver/Src/stm32f4xx_hal_uart.c 0x00000000   Number         0  stm32f4xx_hal_uart.o ABSOLUTE
    ../clib/../cmprslib/zerorunl.c           0x00000000   Number         0  __dczerorl.o ABSOLUTE
    ../clib/microlib/division.c              0x00000000   Number         0  uldiv.o ABSOLUTE
    ../clib/microlib/errno.c                 0x00000000   Number         0  errno.o ABSOLUTE
    ../clib/microlib/init/entry.s            0x00000000   Number         0  entry2.o ABSOLUTE
    ../clib/microlib/init/entry.s            0x00000000   Number         0  entry7b.o ABSOLUTE
    ../clib/microlib/init/entry.s            0x00000000   Number         0  entry7a.o ABSOLUTE
    ../clib/microlib/init/entry.s            0x00000000   Number         0  entry8a.o ABSOLUTE
    ../clib/microlib/init/entry.s            0x00000000   Number         0  entry5.o ABSOLUTE
    ../clib/microlib/init/entry.s            0x00000000   Number         0  entry8b.o ABSOLUTE
    ../clib/microlib/init/entry.s            0x00000000   Number         0  entry10b.o ABSOLUTE
    ../clib/microlib/init/entry.s            0x00000000   Number         0  entry11a.o ABSOLUTE
    ../clib/microlib/init/entry.s            0x00000000   Number         0  entry11b.o ABSOLUTE
    ../clib/microlib/init/entry.s            0x00000000   Number         0  entry10a.o ABSOLUTE
    ../clib/microlib/init/entry.s            0x00000000   Number         0  entry12a.o ABSOLUTE
    ../clib/microlib/init/entry.s            0x00000000   Number         0  entry9b.o ABSOLUTE
    ../clib/microlib/init/entry.s            0x00000000   Number         0  entry12b.o ABSOLUTE
    ../clib/microlib/init/entry.s            0x00000000   Number         0  entry.o ABSOLUTE
    ../clib/microlib/init/entry.s            0x00000000   Number         0  entry9a.o ABSOLUTE
    ../clib/microlib/longlong.c              0x00000000   Number         0  llushr.o ABSOLUTE
    ../clib/microlib/longlong.c              0x00000000   Number         0  llshl.o ABSOLUTE
    ../clib/microlib/longlong.c              0x00000000   Number         0  llsshr.o ABSOLUTE
    ../clib/microlib/malloc/malloc.c         0x00000000   Number         0  malloca.o ABSOLUTE
    ../clib/microlib/malloc/malloc.c         0x00000000   Number         0  mallocr.o ABSOLUTE
    ../clib/microlib/malloc/malloc.c         0x00000000   Number         0  malloc.o ABSOLUTE
    ../clib/microlib/malloc/malloc.c         0x00000000   Number         0  mallocra.o ABSOLUTE
    ../clib/microlib/malloc/mvars.c          0x00000000   Number         0  mvars.o ABSOLUTE
    ../clib/microlib/string/memcpy.c         0x00000000   Number         0  memcpyb.o ABSOLUTE
    ../clib/microlib/string/memcpy.c         0x00000000   Number         0  memcpya.o ABSOLUTE
    ../clib/microlib/string/memset.c         0x00000000   Number         0  memseta.o ABSOLUTE
    ../clib/microlib/string/memset.c         0x00000000   Number         0  memset.o ABSOLUTE
    ../clib/microlib/stubs.s                 0x00000000   Number         0  iusefp.o ABSOLUTE
    ../fplib/microlib/d2f.c                  0x00000000   Number         0  d2f.o ABSOLUTE
    ../fplib/microlib/f2d.c                  0x00000000   Number         0  f2d.o ABSOLUTE
    ../fplib/microlib/fpadd.c                0x00000000   Number         0  dadd.o ABSOLUTE
    ../fplib/microlib/fpdiv.c                0x00000000   Number         0  ddiv.o ABSOLUTE
    ../fplib/microlib/fpepilogue.c           0x00000000   Number         0  depilogue.o ABSOLUTE
    ../fplib/microlib/fpepilogue.c           0x00000000   Number         0  fepilogue.o ABSOLUTE
    ../fplib/microlib/fpfix.c                0x00000000   Number         0  dfixi.o ABSOLUTE
    ../fplib/microlib/fpflt.c                0x00000000   Number         0  dflti.o ABSOLUTE
    ../fplib/microlib/fpflt.c                0x00000000   Number         0  dfltui.o ABSOLUTE
    ../fplib/microlib/fpmul.c                0x00000000   Number         0  dmul.o ABSOLUTE
    ../fplib/microlib/fpneg.c                0x00000000   Number         0  dneg.o ABSOLUTE
    ../fplib/microlib/fpsqrt.c               0x00000000   Number         0  dsqrt.o ABSOLUTE
    ../mathlib/atan.c                        0x00000000   Number         0  atan_x.o ABSOLUTE
    ../mathlib/atan.c                        0x00000000   Number         0  atan.o ABSOLUTE
    ../mathlib/atan2.c                       0x00000000   Number         0  atan2_x.o ABSOLUTE
    ../mathlib/atan2.c                       0x00000000   Number         0  atan2.o ABSOLUTE
    ../mathlib/cos.c                         0x00000000   Number         0  cos.o ABSOLUTE
    ../mathlib/cos.c                         0x00000000   Number         0  cos_x.o ABSOLUTE
    ../mathlib/cos_i.c                       0x00000000   Number         0  cos_i.o ABSOLUTE
    ../mathlib/dunder.c                      0x00000000   Number         0  dunder.o ABSOLUTE
    ../mathlib/fabs.c                        0x00000000   Number         0  fabs.o ABSOLUTE
    ../mathlib/fpclassify.c                  0x00000000   Number         0  fpclassify.o ABSOLUTE
    ../mathlib/poly.c                        0x00000000   Number         0  poly.o ABSOLUTE
    ../mathlib/qnan.c                        0x00000000   Number         0  qnan.o ABSOLUTE
    ../mathlib/rred.c                        0x00000000   Number         0  rred.o ABSOLUTE
    ../mathlib/sin.c                         0x00000000   Number         0  sin_x.o ABSOLUTE
    ../mathlib/sin.c                         0x00000000   Number         0  sin.o ABSOLUTE
    ../mathlib/sin_i.c                       0x00000000   Number         0  sin_i_x.o ABSOLUTE
    ../mathlib/sin_i.c                       0x00000000   Number         0  sin_i.o ABSOLUTE
    ../mathlib/sqrt.c                        0x00000000   Number         0  sqrt_x.o ABSOLUTE
    ../mathlib/sqrt.c                        0x00000000   Number         0  sqrt.o ABSOLUTE
    ..\Core\Src\freertos.c                   0x00000000   Number         0  freertos.o ABSOLUTE
    ..\Core\Src\main.c                       0x00000000   Number         0  main.o ABSOLUTE
    ..\Core\Src\stm32f4xx_hal_msp.c          0x00000000   Number         0  stm32f4xx_hal_msp.o ABSOLUTE
    ..\Core\Src\stm32f4xx_it.c               0x00000000   Number         0  stm32f4xx_it.o ABSOLUTE
    ..\Core\Src\system_stm32f4xx.c           0x00000000   Number         0  system_stm32f4xx.o ABSOLUTE
    ..\Core\Src\tim.c                        0x00000000   Number         0  tim.o ABSOLUTE
    ..\Core\User\CAN_receive.c               0x00000000   Number         0  can_receive.o ABSOLUTE
    ..\Core\User\HWT101.c                    0x00000000   Number         0  hwt101.o ABSOLUTE
    ..\Core\User\add.c                       0x00000000   Number         0  add.o ABSOLUTE
    ..\Core\User\auto.c                      0x00000000   Number         0  auto.o ABSOLUTE
    ..\Core\User\can.c                       0x00000000   Number         0  can.o ABSOLUTE
    ..\Core\User\chassis.c                   0x00000000   Number         0  chassis.o ABSOLUTE
    ..\Core\User\mode_choic.c                0x00000000   Number         0  mode_choic.o ABSOLUTE
    ..\Core\User\niming.c                    0x00000000   Number         0  niming.o ABSOLUTE
    ..\Core\User\pid.c                       0x00000000   Number         0  pid.o ABSOLUTE
    ..\Core\User\sbus.c                      0x00000000   Number         0  sbus.o ABSOLUTE
    ..\Core\User\superstratum.c              0x00000000   Number         0  superstratum.o ABSOLUTE
    ..\Core\User\usart.c                     0x00000000   Number         0  usart.o ABSOLUTE
    ..\Drivers\STM32F4xx_HAL_Driver\Src\stm32f4xx_hal.c 0x00000000   Number         0  stm32f4xx_hal.o ABSOLUTE
    ..\Drivers\STM32F4xx_HAL_Driver\Src\stm32f4xx_hal_can.c 0x00000000   Number         0  stm32f4xx_hal_can.o ABSOLUTE
    ..\Drivers\STM32F4xx_HAL_Driver\Src\stm32f4xx_hal_cortex.c 0x00000000   Number         0  stm32f4xx_hal_cortex.o ABSOLUTE
    ..\Drivers\STM32F4xx_HAL_Driver\Src\stm32f4xx_hal_dma.c 0x00000000   Number         0  stm32f4xx_hal_dma.o ABSOLUTE
    ..\Drivers\STM32F4xx_HAL_Driver\Src\stm32f4xx_hal_dma_ex.c 0x00000000   Number         0  stm32f4xx_hal_dma_ex.o ABSOLUTE
    ..\Drivers\STM32F4xx_HAL_Driver\Src\stm32f4xx_hal_exti.c 0x00000000   Number         0  stm32f4xx_hal_exti.o ABSOLUTE
    ..\Drivers\STM32F4xx_HAL_Driver\Src\stm32f4xx_hal_flash.c 0x00000000   Number         0  stm32f4xx_hal_flash.o ABSOLUTE
    ..\Drivers\STM32F4xx_HAL_Driver\Src\stm32f4xx_hal_flash_ex.c 0x00000000   Number         0  stm32f4xx_hal_flash_ex.o ABSOLUTE
    ..\Drivers\STM32F4xx_HAL_Driver\Src\stm32f4xx_hal_flash_ramfunc.c 0x00000000   Number         0  stm32f4xx_hal_flash_ramfunc.o ABSOLUTE
    ..\Drivers\STM32F4xx_HAL_Driver\Src\stm32f4xx_hal_gpio.c 0x00000000   Number         0  stm32f4xx_hal_gpio.o ABSOLUTE
    ..\Drivers\STM32F4xx_HAL_Driver\Src\stm32f4xx_hal_pwr.c 0x00000000   Number         0  stm32f4xx_hal_pwr.o ABSOLUTE
    ..\Drivers\STM32F4xx_HAL_Driver\Src\stm32f4xx_hal_pwr_ex.c 0x00000000   Number         0  stm32f4xx_hal_pwr_ex.o ABSOLUTE
    ..\Drivers\STM32F4xx_HAL_Driver\Src\stm32f4xx_hal_rcc.c 0x00000000   Number         0  stm32f4xx_hal_rcc.o ABSOLUTE
    ..\Drivers\STM32F4xx_HAL_Driver\Src\stm32f4xx_hal_rcc_ex.c 0x00000000   Number         0  stm32f4xx_hal_rcc_ex.o ABSOLUTE
    ..\Drivers\STM32F4xx_HAL_Driver\Src\stm32f4xx_hal_tim.c 0x00000000   Number         0  stm32f4xx_hal_tim.o ABSOLUTE
    ..\Drivers\STM32F4xx_HAL_Driver\Src\stm32f4xx_hal_tim_ex.c 0x00000000   Number         0  stm32f4xx_hal_tim_ex.o ABSOLUTE
    ..\Drivers\STM32F4xx_HAL_Driver\Src\stm32f4xx_hal_uart.c 0x00000000   Number         0  stm32f4xx_hal_uart.o ABSOLUTE
    ..\Middlewares\Third_Party\FreeRTOS\Source\CMSIS_RTOS\cmsis_os.c 0x00000000   Number         0  cmsis_os.o ABSOLUTE
    ..\Middlewares\Third_Party\FreeRTOS\Source\croutine.c 0x00000000   Number         0  croutine.o ABSOLUTE
    ..\Middlewares\Third_Party\FreeRTOS\Source\event_groups.c 0x00000000   Number         0  event_groups.o ABSOLUTE
    ..\Middlewares\Third_Party\FreeRTOS\Source\list.c 0x00000000   Number         0  list.o ABSOLUTE
    ..\Middlewares\Third_Party\FreeRTOS\Source\portable\MemMang\heap_4.c 0x00000000   Number         0  heap_4.o ABSOLUTE
    ..\Middlewares\Third_Party\FreeRTOS\Source\portable\RVDS\ARM_CM4F\port.c 0x00000000   Number         0  port.o ABSOLUTE
    ..\Middlewares\Third_Party\FreeRTOS\Source\queue.c 0x00000000   Number         0  queue.o ABSOLUTE
    ..\Middlewares\Third_Party\FreeRTOS\Source\stream_buffer.c 0x00000000   Number         0  stream_buffer.o ABSOLUTE
    ..\Middlewares\Third_Party\FreeRTOS\Source\tasks.c 0x00000000   Number         0  tasks.o ABSOLUTE
    ..\Middlewares\Third_Party\FreeRTOS\Source\timers.c 0x00000000   Number         0  timers.o ABSOLUTE
    ..\\Core\\Src\\freertos.c                0x00000000   Number         0  freertos.o ABSOLUTE
    ..\\Core\\Src\\tim.c                     0x00000000   Number         0  tim.o ABSOLUTE
    ..\\Core\\User\\CAN_receive.c            0x00000000   Number         0  can_receive.o ABSOLUTE
    ..\\Core\\User\\HWT101.c                 0x00000000   Number         0  hwt101.o ABSOLUTE
    ..\\Core\\User\\add.c                    0x00000000   Number         0  add.o ABSOLUTE
    ..\\Core\\User\\auto.c                   0x00000000   Number         0  auto.o ABSOLUTE
    ..\\Core\\User\\can.c                    0x00000000   Number         0  can.o ABSOLUTE
    ..\\Core\\User\\chassis.c                0x00000000   Number         0  chassis.o ABSOLUTE
    ..\\Core\\User\\mode_choic.c             0x00000000   Number         0  mode_choic.o ABSOLUTE
    ..\\Core\\User\\niming.c                 0x00000000   Number         0  niming.o ABSOLUTE
    ..\\Core\\User\\pid.c                    0x00000000   Number         0  pid.o ABSOLUTE
    ..\\Core\\User\\sbus.c                   0x00000000   Number         0  sbus.o ABSOLUTE
    ..\\Core\\User\\superstratum.c           0x00000000   Number         0  superstratum.o ABSOLUTE
    ..\\Core\\User\\usart.c                  0x00000000   Number         0  usart.o ABSOLUTE
    ..\\Middlewares\\Third_Party\\FreeRTOS\\Source\\CMSIS_RTOS\\cmsis_os.c 0x00000000   Number         0  cmsis_os.o ABSOLUTE
    ..\\Middlewares\\Third_Party\\FreeRTOS\\Source\\portable\\RVDS\\ARM_CM4F\\port.c 0x00000000   Number         0  port.o ABSOLUTE
    cdcmple.s                                0x00000000   Number         0  cdcmple.o ABSOLUTE
    cdrcmple.s                               0x00000000   Number         0  cdrcmple.o ABSOLUTE
    dc.s                                     0x00000000   Number         0  dc.o ABSOLUTE
    handlers.s                               0x00000000   Number         0  handlers.o ABSOLUTE
    init.s                                   0x00000000   Number         0  init.o ABSOLUTE
    startup_stm32f429xx.s                    0x00000000   Number         0  startup_stm32f429xx.o ABSOLUTE
    RESET                                    0x08000000   Section      428  startup_stm32f429xx.o(RESET)
    .ARM.Collect$$$$00000000                 0x080001ac   Section        0  entry.o(.ARM.Collect$$$$00000000)
    .ARM.Collect$$$$00000001                 0x080001ac   Section        4  entry2.o(.ARM.Collect$$$$00000001)
    .ARM.Collect$$$$00000004                 0x080001b0   Section        4  entry5.o(.ARM.Collect$$$$00000004)
    .ARM.Collect$$$$00000008                 0x080001b4   Section        0  entry7b.o(.ARM.Collect$$$$00000008)
    .ARM.Collect$$$$0000000A                 0x080001b4   Section        0  entry8b.o(.ARM.Collect$$$$0000000A)
    .ARM.Collect$$$$0000000B                 0x080001b4   Section        8  entry9a.o(.ARM.Collect$$$$0000000B)
    .ARM.Collect$$$$0000000E                 0x080001bc   Section        4  entry12b.o(.ARM.Collect$$$$0000000E)
    .ARM.Collect$$$$0000000F                 0x080001c0   Section        0  entry10a.o(.ARM.Collect$$$$0000000F)
    .ARM.Collect$$$$00000011                 0x080001c0   Section        0  entry11a.o(.ARM.Collect$$$$00000011)
    .ARM.Collect$$$$00002712                 0x080001c0   Section        4  entry2.o(.ARM.Collect$$$$00002712)
    __lit__00000000                          0x080001c0   Data           4  entry2.o(.ARM.Collect$$$$00002712)
    .emb_text                                0x080001c4   Section      190  port.o(.emb_text)
    $v0                                      0x080001c4   Number         0  port.o(.emb_text)
    .text                                    0x08000284   Section       36  startup_stm32f429xx.o(.text)
    $v0                                      0x08000284   Number         0  startup_stm32f429xx.o(.text)
    .text                                    0x080002a8   Section        0  uldiv.o(.text)
    .text                                    0x0800030a   Section        0  memseta.o(.text)
    .text                                    0x0800032e   Section        0  dadd.o(.text)
    .text                                    0x0800047c   Section        0  dmul.o(.text)
    .text                                    0x08000560   Section        0  ddiv.o(.text)
    .text                                    0x0800063e   Section        0  dflti.o(.text)
    .text                                    0x08000660   Section        0  dfixi.o(.text)
    .text                                    0x0800069e   Section        0  f2d.o(.text)
    .text                                    0x080006c4   Section       48  cdcmple.o(.text)
    .text                                    0x080006f4   Section       48  cdrcmple.o(.text)
    .text                                    0x08000724   Section        0  d2f.o(.text)
    .text                                    0x0800075c   Section        0  llshl.o(.text)
    .text                                    0x0800077a   Section        0  llushr.o(.text)
    .text                                    0x0800079a   Section        0  llsshr.o(.text)
    .text                                    0x080007be   Section        0  fepilogue.o(.text)
    .text                                    0x080007be   Section        0  iusefp.o(.text)
    .text                                    0x0800082c   Section        0  depilogue.o(.text)
    .text                                    0x080008e6   Section        0  dsqrt.o(.text)
    .text                                    0x08000988   Section       36  init.o(.text)
    .text                                    0x080009ac   Section        0  __dczerorl.o(.text)
    i.ALL_PID_SET                            0x080009e8   Section        0  superstratum.o(i.ALL_PID_SET)
    i.Add_Task                               0x08000b58   Section        0  freertos.o(i.Add_Task)
    i.Auto_Task                              0x08000b64   Section        0  freertos.o(i.Auto_Task)
    i.Auto_chassic_mode                      0x08000b78   Section        0  auto.o(i.Auto_chassic_mode)
    i.Auto_control_task                      0x080011f4   Section        0  auto.o(i.Auto_control_task)
    i.BusFault_Handler                       0x08001300   Section        0  stm32f4xx_it.o(i.BusFault_Handler)
    i.CAN1_RX0_IRQHandler                    0x08001304   Section        0  stm32f4xx_it.o(i.CAN1_RX0_IRQHandler)
    i.CAN2_RX0_IRQHandler                    0x0800131c   Section        0  stm32f4xx_it.o(i.CAN2_RX0_IRQHandler)
    i.CAN2_RX1_IRQHandler                    0x0800134c   Section        0  stm32f4xx_it.o(i.CAN2_RX1_IRQHandler)
    i.CAN_cmd_AGV_chassis                    0x08001364   Section        0  can_receive.o(i.CAN_cmd_AGV_chassis)
    i.CAN_cmd_chassis                        0x080013c8   Section        0  can_receive.o(i.CAN_cmd_chassis)
    i.CAN_cmd_gimbal1                        0x0800144c   Section        0  can_receive.o(i.CAN_cmd_gimbal1)
    i.CAN_cmd_gimbal2                        0x080014c4   Section        0  can_receive.o(i.CAN_cmd_gimbal2)
    i.CHASSIS_Init                           0x0800154c   Section        0  chassis.o(i.CHASSIS_Init)
    i.CHASSIS_PID_Init                       0x08001580   Section        0  chassis.o(i.CHASSIS_PID_Init)
    i.Chassic_Task                           0x08001780   Section        0  freertos.o(i.Chassic_Task)
    i.Control_Task                           0x08001790   Section        0  chassis.o(i.Control_Task)
    i.DMA1_Stream1_IRQHandler                0x080017ec   Section        0  stm32f4xx_it.o(i.DMA1_Stream1_IRQHandler)
    i.DebugMon_Handler                       0x08001808   Section        0  stm32f4xx_it.o(i.DebugMon_Handler)
    i.Error_Handler                          0x0800180a   Section        0  main.o(i.Error_Handler)
    i.GET_InitPinstate                       0x08001810   Section        0  auto.o(i.GET_InitPinstate)
    i.HAL_CAN_ActivateNotification           0x0800189c   Section        0  stm32f4xx_hal_can.o(i.HAL_CAN_ActivateNotification)
    i.HAL_CAN_AddTxMessage                   0x080018c8   Section        0  stm32f4xx_hal_can.o(i.HAL_CAN_AddTxMessage)
    i.HAL_CAN_ConfigFilter                   0x08001a84   Section        0  stm32f4xx_hal_can.o(i.HAL_CAN_ConfigFilter)
    i.HAL_CAN_ErrorCallback                  0x08001ba0   Section        0  stm32f4xx_hal_can.o(i.HAL_CAN_ErrorCallback)
    i.HAL_CAN_GetError                       0x08001ba2   Section        0  stm32f4xx_hal_can.o(i.HAL_CAN_GetError)
    i.HAL_CAN_GetRxFifoFillLevel             0x08001ba6   Section        0  stm32f4xx_hal_can.o(i.HAL_CAN_GetRxFifoFillLevel)
    i.HAL_CAN_GetRxMessage                   0x08001bc8   Section        0  stm32f4xx_hal_can.o(i.HAL_CAN_GetRxMessage)
    i.HAL_CAN_GetState                       0x08001d12   Section        0  stm32f4xx_hal_can.o(i.HAL_CAN_GetState)
    i.HAL_CAN_IRQHandler                     0x08001d3a   Section        0  stm32f4xx_hal_can.o(i.HAL_CAN_IRQHandler)
    i.HAL_CAN_Init                           0x08001f70   Section        0  stm32f4xx_hal_can.o(i.HAL_CAN_Init)
    i.HAL_CAN_MspInit                        0x0800209c   Section        0  stm32f4xx_hal_msp.o(i.HAL_CAN_MspInit)
    i.HAL_CAN_RxFifo0FullCallback            0x08002200   Section        0  stm32f4xx_hal_can.o(i.HAL_CAN_RxFifo0FullCallback)
    i.HAL_CAN_RxFifo0MsgPendingCallback      0x08002204   Section        0  can_receive.o(i.HAL_CAN_RxFifo0MsgPendingCallback)
    i.HAL_CAN_RxFifo1FullCallback            0x08002308   Section        0  stm32f4xx_hal_can.o(i.HAL_CAN_RxFifo1FullCallback)
    i.HAL_CAN_RxFifo1MsgPendingCallback      0x0800230a   Section        0  stm32f4xx_hal_can.o(i.HAL_CAN_RxFifo1MsgPendingCallback)
    i.HAL_CAN_SleepCallback                  0x0800230c   Section        0  stm32f4xx_hal_can.o(i.HAL_CAN_SleepCallback)
    i.HAL_CAN_Start                          0x08002310   Section        0  stm32f4xx_hal_can.o(i.HAL_CAN_Start)
    i.HAL_CAN_TxMailbox0AbortCallback        0x08002374   Section        0  stm32f4xx_hal_can.o(i.HAL_CAN_TxMailbox0AbortCallback)
    i.HAL_CAN_TxMailbox0CompleteCallback     0x08002376   Section        0  stm32f4xx_hal_can.o(i.HAL_CAN_TxMailbox0CompleteCallback)
    i.HAL_CAN_TxMailbox1AbortCallback        0x08002378   Section        0  stm32f4xx_hal_can.o(i.HAL_CAN_TxMailbox1AbortCallback)
    i.HAL_CAN_TxMailbox1CompleteCallback     0x0800237a   Section        0  stm32f4xx_hal_can.o(i.HAL_CAN_TxMailbox1CompleteCallback)
    i.HAL_CAN_TxMailbox2AbortCallback        0x0800237c   Section        0  stm32f4xx_hal_can.o(i.HAL_CAN_TxMailbox2AbortCallback)
    i.HAL_CAN_TxMailbox2CompleteCallback     0x0800237e   Section        0  stm32f4xx_hal_can.o(i.HAL_CAN_TxMailbox2CompleteCallback)
    i.HAL_CAN_WakeUpFromRxMsgCallback        0x08002380   Section        0  stm32f4xx_hal_can.o(i.HAL_CAN_WakeUpFromRxMsgCallback)
    i.HAL_DMA_Abort                          0x08002382   Section        0  stm32f4xx_hal_dma.o(i.HAL_DMA_Abort)
    i.HAL_DMA_Abort_IT                       0x08002428   Section        0  stm32f4xx_hal_dma.o(i.HAL_DMA_Abort_IT)
    i.HAL_DMA_GetError                       0x0800244c   Section        0  stm32f4xx_hal_dma.o(i.HAL_DMA_GetError)
    i.HAL_DMA_IRQHandler                     0x08002450   Section        0  stm32f4xx_hal_dma.o(i.HAL_DMA_IRQHandler)
    i.HAL_DMA_Init                           0x0800262c   Section        0  stm32f4xx_hal_dma.o(i.HAL_DMA_Init)
    i.HAL_DMA_Start_IT                       0x08002788   Section        0  stm32f4xx_hal_dma.o(i.HAL_DMA_Start_IT)
    i.HAL_Delay                              0x0800281c   Section        0  stm32f4xx_hal.o(i.HAL_Delay)
    i.HAL_GPIO_DeInit                        0x08002844   Section        0  stm32f4xx_hal_gpio.o(i.HAL_GPIO_DeInit)
    i.HAL_GPIO_Init                          0x080029b8   Section        0  stm32f4xx_hal_gpio.o(i.HAL_GPIO_Init)
    i.HAL_GPIO_ReadPin                       0x08002c18   Section        0  stm32f4xx_hal_gpio.o(i.HAL_GPIO_ReadPin)
    i.HAL_GPIO_WritePin                      0x08002c22   Section        0  stm32f4xx_hal_gpio.o(i.HAL_GPIO_WritePin)
    i.HAL_GetTick                            0x08002c2c   Section        0  stm32f4xx_hal.o(i.HAL_GetTick)
    i.HAL_IncTick                            0x08002c38   Section        0  stm32f4xx_hal.o(i.HAL_IncTick)
    i.HAL_Init                               0x08002c48   Section        0  stm32f4xx_hal.o(i.HAL_Init)
    i.HAL_InitTick                           0x08002c7c   Section        0  stm32f4xx_hal.o(i.HAL_InitTick)
    i.HAL_MspInit                            0x08002cbc   Section        0  stm32f4xx_hal_msp.o(i.HAL_MspInit)
    i.HAL_NVIC_DisableIRQ                    0x08002cf0   Section        0  stm32f4xx_hal_cortex.o(i.HAL_NVIC_DisableIRQ)
    i.HAL_NVIC_EnableIRQ                     0x08002d16   Section        0  stm32f4xx_hal_cortex.o(i.HAL_NVIC_EnableIRQ)
    i.HAL_NVIC_SetPriority                   0x08002d34   Section        0  stm32f4xx_hal_cortex.o(i.HAL_NVIC_SetPriority)
    i.HAL_NVIC_SetPriorityGrouping           0x08002d98   Section        0  stm32f4xx_hal_cortex.o(i.HAL_NVIC_SetPriorityGrouping)
    i.HAL_PWREx_EnableOverDrive              0x08002dbc   Section        0  stm32f4xx_hal_pwr_ex.o(i.HAL_PWREx_EnableOverDrive)
    i.HAL_RCC_ClockConfig                    0x08002e34   Section        0  stm32f4xx_hal_rcc.o(i.HAL_RCC_ClockConfig)
    i.HAL_RCC_GetPCLK1Freq                   0x08002f90   Section        0  stm32f4xx_hal_rcc.o(i.HAL_RCC_GetPCLK1Freq)
    i.HAL_RCC_GetPCLK2Freq                   0x08002fb0   Section        0  stm32f4xx_hal_rcc.o(i.HAL_RCC_GetPCLK2Freq)
    i.HAL_RCC_GetSysClockFreq                0x08002fd0   Section        0  stm32f4xx_hal_rcc.o(i.HAL_RCC_GetSysClockFreq)
    i.HAL_RCC_OscConfig                      0x08003044   Section        0  stm32f4xx_hal_rcc.o(i.HAL_RCC_OscConfig)
    i.HAL_SYSTICK_Config                     0x08003428   Section        0  stm32f4xx_hal_cortex.o(i.HAL_SYSTICK_Config)
    i.HAL_TIMEx_BreakCallback                0x08003454   Section        0  stm32f4xx_hal_tim_ex.o(i.HAL_TIMEx_BreakCallback)
    i.HAL_TIMEx_CommutCallback               0x08003456   Section        0  stm32f4xx_hal_tim_ex.o(i.HAL_TIMEx_CommutCallback)
    i.HAL_TIMEx_MasterConfigSynchronization  0x08003458   Section        0  stm32f4xx_hal_tim_ex.o(i.HAL_TIMEx_MasterConfigSynchronization)
    i.HAL_TIM_Base_Init                      0x080034ee   Section        0  stm32f4xx_hal_tim.o(i.HAL_TIM_Base_Init)
    i.HAL_TIM_Base_MspInit                   0x08003524   Section        0  tim.o(i.HAL_TIM_Base_MspInit)
    i.HAL_TIM_Base_Start_IT                  0x08003560   Section        0  stm32f4xx_hal_tim.o(i.HAL_TIM_Base_Start_IT)
    i.HAL_TIM_Base_Stop_IT                   0x08003582   Section        0  stm32f4xx_hal_tim.o(i.HAL_TIM_Base_Stop_IT)
    i.HAL_TIM_IC_CaptureCallback             0x080035ac   Section        0  stm32f4xx_hal_tim.o(i.HAL_TIM_IC_CaptureCallback)
    i.HAL_TIM_IRQHandler                     0x080035ae   Section        0  stm32f4xx_hal_tim.o(i.HAL_TIM_IRQHandler)
    i.HAL_TIM_OC_DelayElapsedCallback        0x0800371a   Section        0  stm32f4xx_hal_tim.o(i.HAL_TIM_OC_DelayElapsedCallback)
    i.HAL_TIM_PWM_PulseFinishedCallback      0x0800371c   Section        0  stm32f4xx_hal_tim.o(i.HAL_TIM_PWM_PulseFinishedCallback)
    i.HAL_TIM_PeriodElapsedCallback          0x08003720   Section        0  tim.o(i.HAL_TIM_PeriodElapsedCallback)
    i.HAL_TIM_TriggerCallback                0x08003760   Section        0  stm32f4xx_hal_tim.o(i.HAL_TIM_TriggerCallback)
    i.HAL_UARTEx_RxEventCallback             0x08003762   Section        0  stm32f4xx_hal_uart.o(i.HAL_UARTEx_RxEventCallback)
    i.HAL_UART_AbortReceive                  0x08003764   Section        0  stm32f4xx_hal_uart.o(i.HAL_UART_AbortReceive)
    i.HAL_UART_DMAStop                       0x08003802   Section        0  stm32f4xx_hal_uart.o(i.HAL_UART_DMAStop)
    i.HAL_UART_DeInit                        0x080038d6   Section        0  stm32f4xx_hal_uart.o(i.HAL_UART_DeInit)
    i.HAL_UART_ErrorCallback                 0x0800390e   Section        0  stm32f4xx_hal_uart.o(i.HAL_UART_ErrorCallback)
    i.HAL_UART_IRQHandler                    0x08003910   Section        0  stm32f4xx_hal_uart.o(i.HAL_UART_IRQHandler)
    i.HAL_UART_Init                          0x08003c18   Section        0  stm32f4xx_hal_uart.o(i.HAL_UART_Init)
    i.HAL_UART_MspDeInit                     0x08003c7c   Section        0  stm32f4xx_hal_msp.o(i.HAL_UART_MspDeInit)
    i.HAL_UART_MspInit                       0x08003cb4   Section        0  stm32f4xx_hal_msp.o(i.HAL_UART_MspInit)
    i.HAL_UART_Receive_DMA                   0x08003e88   Section        0  stm32f4xx_hal_uart.o(i.HAL_UART_Receive_DMA)
    i.HAL_UART_Receive_IT                    0x08003ea8   Section        0  stm32f4xx_hal_uart.o(i.HAL_UART_Receive_IT)
    i.HAL_UART_RxCpltCallback                0x08003efc   Section        0  sbus.o(i.HAL_UART_RxCpltCallback)
    i.HAL_UART_RxHalfCpltCallback            0x08004088   Section        0  stm32f4xx_hal_uart.o(i.HAL_UART_RxHalfCpltCallback)
    i.HAL_UART_Transmit                      0x0800408c   Section        0  stm32f4xx_hal_uart.o(i.HAL_UART_Transmit)
    i.HAL_UART_TxCpltCallback                0x080041de   Section        0  stm32f4xx_hal_uart.o(i.HAL_UART_TxCpltCallback)
    i.HWT605_Data                            0x080041e0   Section        0  hwt101.o(i.HWT605_Data)
    i.Hair_ring_Init                         0x08004330   Section        0  superstratum.o(i.Hair_ring_Init)
    i.HardFault_Handler                      0x0800439c   Section        0  stm32f4xx_it.o(i.HardFault_Handler)
    i.MX_CAN1_Init                           0x080043a0   Section        0  can.o(i.MX_CAN1_Init)
    i.MX_CAN2_Init1                          0x0800442c   Section        0  can.o(i.MX_CAN2_Init1)
    i.MX_DMA_Init                            0x080044b4   Section        0  usart.o(i.MX_DMA_Init)
    i.MX_FREERTOS_Init                       0x080044e0   Section        0  freertos.o(i.MX_FREERTOS_Init)
    i.MX_GPIO_Init                           0x08004590   Section        0  main.o(i.MX_GPIO_Init)
    i.MX_TIM4_Init                           0x080046b0   Section        0  tim.o(i.MX_TIM4_Init)
    i.MX_USART1_UART_Init                    0x080046fc   Section        0  usart.o(i.MX_USART1_UART_Init)
    i.MX_USART2_UART_Init                    0x0800474c   Section        0  usart.o(i.MX_USART2_UART_Init)
    i.MX_USART3_UART_Init                    0x08004790   Section        0  usart.o(i.MX_USART3_UART_Init)
    i.MX_USART6_UART_Init                    0x080047e0   Section        0  usart.o(i.MX_USART6_UART_Init)
    i.MemManage_Handler                      0x08004824   Section        0  stm32f4xx_it.o(i.MemManage_Handler)
    i.Mode_Task                              0x08004828   Section        0  freertos.o(i.Mode_Task)
    i.NMI_Handler                            0x08004840   Section        0  stm32f4xx_it.o(i.NMI_Handler)
    i.PID_Init                               0x08004844   Section        0  pid.o(i.PID_Init)
    i.PID_SET                                0x08004884   Section        0  pid.o(i.PID_SET)
    i.PID_incremental                        0x08004898   Section        0  pid.o(i.PID_incremental)
    i.PID_position                           0x08004974   Section        0  pid.o(i.PID_position)
    i.Protect_Task                           0x08004a0a   Section        0  freertos.o(i.Protect_Task)
    i.SYSTEM_Init_only                       0x08004a12   Section        0  hwt101.o(i.SYSTEM_Init_only)
    i.Speed_loop                             0x08004a1c   Section        0  chassis.o(i.Speed_loop)
    i.Steer                                  0x08004c74   Section        0  chassis.o(i.Steer)
    i.Superstratum_Task                      0x08004ca4   Section        0  freertos.o(i.Superstratum_Task)
    i.SysTick_Handler                        0x08004cb0   Section        0  stm32f4xx_it.o(i.SysTick_Handler)
    i.SystemClock_Config                     0x08004cc8   Section        0  main.o(i.SystemClock_Config)
    i.SystemInit                             0x08004d68   Section        0  system_stm32f4xx.o(i.SystemInit)
    i.TIM4_IRQHandler                        0x08004d84   Section        0  stm32f4xx_it.o(i.TIM4_IRQHandler)
    i.TIM_Base_SetConfig                     0x08004d90   Section        0  stm32f4xx_hal_tim.o(i.TIM_Base_SetConfig)
    i.Target_speed                           0x08004e60   Section        0  chassis.o(i.Target_speed)
    i.UART_DMAAbortOnError                   0x08005100   Section        0  stm32f4xx_hal_uart.o(i.UART_DMAAbortOnError)
    UART_DMAAbortOnError                     0x08005101   Thumb Code    16  stm32f4xx_hal_uart.o(i.UART_DMAAbortOnError)
    i.UART_DMAError                          0x08005110   Section        0  stm32f4xx_hal_uart.o(i.UART_DMAError)
    UART_DMAError                            0x08005111   Thumb Code   174  stm32f4xx_hal_uart.o(i.UART_DMAError)
    i.UART_DMAReceiveCplt                    0x080051be   Section        0  stm32f4xx_hal_uart.o(i.UART_DMAReceiveCplt)
    UART_DMAReceiveCplt                      0x080051bf   Thumb Code   152  stm32f4xx_hal_uart.o(i.UART_DMAReceiveCplt)
    i.UART_DMARxHalfCplt                     0x08005256   Section        0  stm32f4xx_hal_uart.o(i.UART_DMARxHalfCplt)
    UART_DMARxHalfCplt                       0x08005257   Thumb Code    30  stm32f4xx_hal_uart.o(i.UART_DMARxHalfCplt)
    i.UART_Receive_IT                        0x08005274   Section        0  stm32f4xx_hal_uart.o(i.UART_Receive_IT)
    UART_Receive_IT                          0x08005275   Thumb Code   206  stm32f4xx_hal_uart.o(i.UART_Receive_IT)
    i.UART_SetConfig                         0x08005344   Section        0  stm32f4xx_hal_uart.o(i.UART_SetConfig)
    UART_SetConfig                           0x08005345   Thumb Code   236  stm32f4xx_hal_uart.o(i.UART_SetConfig)
    i.UART_Start_Receive_DMA                 0x08005434   Section        0  stm32f4xx_hal_uart.o(i.UART_Start_Receive_DMA)
    i.UART_WaitOnFlagUntilTimeout            0x080054d4   Section        0  stm32f4xx_hal_uart.o(i.UART_WaitOnFlagUntilTimeout)
    UART_WaitOnFlagUntilTimeout              0x080054d5   Thumb Code   186  stm32f4xx_hal_uart.o(i.UART_WaitOnFlagUntilTimeout)
    i.USART1_IRQHandler                      0x08005590   Section        0  stm32f4xx_it.o(i.USART1_IRQHandler)
    i.USART2_IRQHandler                      0x0800559c   Section        0  stm32f4xx_it.o(i.USART2_IRQHandler)
    i.USART3_IRQHandler                      0x080055a8   Section        0  stm32f4xx_it.o(i.USART3_IRQHandler)
    i.USART6_IRQHandler                      0x080055c0   Section        0  stm32f4xx_it.o(i.USART6_IRQHandler)
    i.USER_GYRO_IDLE_IRQHandler              0x080055cc   Section        0  hwt101.o(i.USER_GYRO_IDLE_IRQHandler)
    i.UsageFault_Handler                     0x0800567c   Section        0  stm32f4xx_it.o(i.UsageFault_Handler)
    i.__ARM_fpclassify                       0x0800567e   Section        0  fpclassify.o(i.__ARM_fpclassify)
    i.__hardfp_atan                          0x080056b0   Section        0  atan.o(i.__hardfp_atan)
    i.__hardfp_atan2                         0x08005988   Section        0  atan2.o(i.__hardfp_atan2)
    i.__hardfp_sqrt                          0x08005b88   Section        0  sqrt.o(i.__hardfp_sqrt)
    i.__kernel_poly                          0x08005c02   Section        0  poly.o(i.__kernel_poly)
    i.__mathlib_dbl_infnan                   0x08005cfa   Section        0  dunder.o(i.__mathlib_dbl_infnan)
    i.__mathlib_dbl_infnan2                  0x08005d0e   Section        0  dunder.o(i.__mathlib_dbl_infnan2)
    i.__mathlib_dbl_underflow                0x08005d28   Section        0  dunder.o(i.__mathlib_dbl_underflow)
    i.__scatterload_copy                     0x08005d48   Section       14  handlers.o(i.__scatterload_copy)
    i.__scatterload_null                     0x08005d56   Section        2  handlers.o(i.__scatterload_null)
    i.__scatterload_zeroinit                 0x08005d58   Section       14  handlers.o(i.__scatterload_zeroinit)
    i.__set_errno                            0x08005d68   Section        0  errno.o(i.__set_errno)
    i.atan                                   0x08005d74   Section        0  atan.o(i.atan)
    i.auto_control_state                     0x08005d88   Section        0  auto.o(i.auto_control_state)
    i.calculateJoystickIncrement             0x08006198   Section        0  superstratum.o(i.calculateJoystickIncrement)
    i.chassis_limit                          0x080061d4   Section        0  chassis.o(i.chassis_limit)
    i.checkRxBufferTimeout                   0x0800640c   Section        0  sbus.o(i.checkRxBufferTimeout)
    i.control_sup                            0x08006498   Section        0  auto.o(i.control_sup)
    i.control_sup_task                       0x08006530   Section        0  superstratum.o(i.control_sup_task)
    i.diancifa                               0x0800663c   Section        0  superstratum.o(i.diancifa)
    i.fabs                                   0x08006684   Section        0  fabs.o(i.fabs)
    i.fifio_Init                             0x0800669c   Section        0  can.o(i.fifio_Init)
    i.free                                   0x080066a0   Section        0  malloc.o(i.free)
    i.get_MotorTotalAngle                    0x080066f0   Section        0  can_receive.o(i.get_MotorTotalAngle)
    i.main                                   0x080067c4   Section        0  main.o(i.main)
    i.malloc                                 0x08006894   Section        0  malloc.o(i.malloc)
    i.mode_judge                             0x08006900   Section        0  mode_choic.o(i.mode_judge)
    i.motion                                 0x080069bc   Section        0  superstratum.o(i.motion)
    i.osDelay                                0x08006a3c   Section        0  cmsis_os.o(i.osDelay)
    i.osKernelStart                          0x08006a4c   Section        0  cmsis_os.o(i.osKernelStart)
    i.osKernelSysTick                        0x08006a56   Section        0  cmsis_os.o(i.osKernelSysTick)
    i.osThreadCreate                         0x08006a64   Section        0  cmsis_os.o(i.osThreadCreate)
    i.processReceivedData_R                  0x08006acc   Section        0  sbus.o(i.processReceivedData_R)
    i.processReceivedData_V                  0x08006b68   Section        0  sbus.o(i.processReceivedData_V)
    i.prvAddCurrentTaskToDelayedList         0x08006c04   Section        0  tasks.o(i.prvAddCurrentTaskToDelayedList)
    prvAddCurrentTaskToDelayedList           0x08006c05   Thumb Code   108  tasks.o(i.prvAddCurrentTaskToDelayedList)
    i.prvAddNewTaskToReadyList               0x08006c78   Section        0  tasks.o(i.prvAddNewTaskToReadyList)
    prvAddNewTaskToReadyList                 0x08006c79   Thumb Code   194  tasks.o(i.prvAddNewTaskToReadyList)
    i.prvIdleTask                            0x08006d5c   Section        0  tasks.o(i.prvIdleTask)
    prvIdleTask                              0x08006d5d   Thumb Code   126  tasks.o(i.prvIdleTask)
    i.prvTaskExitError                       0x08006de8   Section        0  port.o(i.prvTaskExitError)
    prvTaskExitError                         0x08006de9   Thumb Code    38  port.o(i.prvTaskExitError)
    i.pvPortMalloc                           0x08006e14   Section        0  heap_4.o(i.pvPortMalloc)
    i.pxPortInitialiseStack                  0x08006fa4   Section        0  port.o(i.pxPortInitialiseStack)
    i.remote_control                         0x08006fd0   Section        0  superstratum.o(i.remote_control)
    i.remote_control_                        0x080074d0   Section        0  chassis.o(i.remote_control_)
    i.sbus_decoder                           0x08007664   Section        0  sbus.o(i.sbus_decoder)
    i.sup_add_task                           0x080077a0   Section        0  add.o(i.sup_add_task)
    i.usart_send_char                        0x080078ec   Section        0  niming.o(i.usart_send_char)
    i.usart_send_message                     0x08007924   Section        0  auto.o(i.usart_send_message)
    i.uxListRemove                           0x080079b4   Section        0  list.o(i.uxListRemove)
    i.vApplicationGetIdleTaskMemory          0x080079dc   Section        0  freertos.o(i.vApplicationGetIdleTaskMemory)
    i.vListInitialise                        0x080079f0   Section        0  list.o(i.vListInitialise)
    i.vListInitialiseItem                    0x08007a06   Section        0  list.o(i.vListInitialiseItem)
    i.vListInsert                            0x08007a0c   Section        0  list.o(i.vListInsert)
    i.vListInsertEnd                         0x08007a46   Section        0  list.o(i.vListInsertEnd)
    i.vPortEnterCritical                     0x08007a60   Section        0  port.o(i.vPortEnterCritical)
    i.vPortExitCritical                      0x08007aa0   Section        0  port.o(i.vPortExitCritical)
    i.vPortFree                              0x08007acc   Section        0  heap_4.o(i.vPortFree)
    i.vPortSetupTimerInterrupt               0x08007b74   Section        0  port.o(i.vPortSetupTimerInterrupt)
    i.vPortValidateInterruptPriority         0x08007b98   Section        0  port.o(i.vPortValidateInterruptPriority)
    i.vTaskDelay                             0x08007bec   Section        0  tasks.o(i.vTaskDelay)
    i.vTaskStartScheduler                    0x08007c38   Section        0  tasks.o(i.vTaskStartScheduler)
    i.vTaskSuspendAll                        0x08007ca4   Section        0  tasks.o(i.vTaskSuspendAll)
    i.vTaskSwitchContext                     0x08007cb4   Section        0  tasks.o(i.vTaskSwitchContext)
    i.value_init                             0x08007d10   Section        0  auto.o(i.value_init)
    i.xPortStartScheduler                    0x08007df4   Section        0  port.o(i.xPortStartScheduler)
    i.xPortSysTickHandler                    0x08007ef8   Section        0  port.o(i.xPortSysTickHandler)
    i.xTaskCreate                            0x08007f24   Section        0  tasks.o(i.xTaskCreate)
    i.xTaskCreateStatic                      0x08007fda   Section        0  tasks.o(i.xTaskCreateStatic)
    i.xTaskGetSchedulerState                 0x080080ac   Section        0  tasks.o(i.xTaskGetSchedulerState)
    i.xTaskGetTickCount                      0x080080c8   Section        0  tasks.o(i.xTaskGetTickCount)
    i.xTaskGetTickCountFromISR               0x080080d4   Section        0  tasks.o(i.xTaskGetTickCountFromISR)
    i.xTaskIncrementTick                     0x080080e4   Section        0  tasks.o(i.xTaskIncrementTick)
    i.xTaskResumeAll                         0x080081d0   Section        0  tasks.o(i.xTaskResumeAll)
    .constdata                               0x08008388   Section      168  freertos.o(.constdata)
    .constdata                               0x08008430   Section        8  stm32f4xx_hal_dma.o(.constdata)
    flagBitshiftOffset                       0x08008430   Data           8  stm32f4xx_hal_dma.o(.constdata)
    .constdata                               0x08008438   Section       16  system_stm32f4xx.o(.constdata)
    .constdata                               0x08008448   Section        8  system_stm32f4xx.o(.constdata)
    .constdata                               0x08008450   Section      152  atan.o(.constdata)
    atanhi                                   0x08008450   Data          32  atan.o(.constdata)
    atanlo                                   0x08008470   Data          32  atan.o(.constdata)
    aTodd                                    0x08008490   Data          40  atan.o(.constdata)
    aTeven                                   0x080084b8   Data          48  atan.o(.constdata)
    .constdata                               0x080084e8   Section        8  qnan.o(.constdata)
    .conststring                             0x080084f0   Section       72  freertos.o(.conststring)
    .data                                    0x20000000   Section        4  main.o(.data)
    .data                                    0x20000004   Section        8  main.o(.data)
    .data                                    0x2000000c   Section       20  stm32f4xx_it.o(.data)
    .data                                    0x20000020   Section        4  stm32f4xx_hal_msp.o(.data)
    .data                                    0x20000024   Section       32  freertos.o(.data)
    .data                                    0x20000044   Section        4  tim.o(.data)
    .data                                    0x20000048   Section        8  stm32f4xx_hal_can.o(.data)
    .data                                    0x20000050   Section       12  stm32f4xx_hal.o(.data)
    .data                                    0x2000005c   Section        4  system_stm32f4xx.o(.data)
    .data                                    0x20000060   Section       52  can_receive.o(.data)
    i                                        0x20000060   Data           1  can_receive.o(.data)
    i                                        0x20000061   Data           1  can_receive.o(.data)
    gimbal_can_send_data                     0x20000084   Data           8  can_receive.o(.data)
    chassis_can_send_data                    0x2000008c   Data           8  can_receive.o(.data)
    .data                                    0x20000094   Section       12  can.o(.data)
    .data                                    0x200000a0   Section       40  sbus.o(.data)
    .data                                    0x200000c8   Section        4  usart.o(.data)
    .data                                    0x200000cc   Section        1  usart.o(.data)
    .data                                    0x200000d0   Section        4  usart.o(.data)
    .data                                    0x200000d4   Section        4  pid.o(.data)
    .data                                    0x200000d8   Section       48  chassis.o(.data)
    .data                                    0x20000108   Section        4  niming.o(.data)
    .data                                    0x2000010c   Section       92  superstratum.o(.data)
    .data                                    0x20000168   Section        8  mode_choic.o(.data)
    .data                                    0x20000170   Section      192  auto.o(.data)
    .data                                    0x20000230   Section       16  add.o(.data)
    .data                                    0x20000240   Section       56  hwt101.o(.data)
    aRxnum                                   0x20000240   Data           1  hwt101.o(.data)
    HWT605_length                            0x20000254   Data           4  hwt101.o(.data)
    .data                                    0x20000278   Section        5  hwt101.o(.data)
    .data                                    0x20000280   Section       60  tasks.o(.data)
    uxDeletedTasksWaitingCleanUp             0x20000284   Data           4  tasks.o(.data)
    uxCurrentNumberOfTasks                   0x20000288   Data           4  tasks.o(.data)
    xTickCount                               0x2000028c   Data           4  tasks.o(.data)
    uxTopReadyPriority                       0x20000290   Data           4  tasks.o(.data)
    xSchedulerRunning                        0x20000294   Data           4  tasks.o(.data)
    xPendedTicks                             0x20000298   Data           4  tasks.o(.data)
    xYieldPending                            0x2000029c   Data           4  tasks.o(.data)
    xNumOfOverflows                          0x200002a0   Data           4  tasks.o(.data)
    uxTaskNumber                             0x200002a4   Data           4  tasks.o(.data)
    xNextTaskUnblockTime                     0x200002a8   Data           4  tasks.o(.data)
    xIdleTaskHandle                          0x200002ac   Data           4  tasks.o(.data)
    uxSchedulerSuspended                     0x200002b0   Data           4  tasks.o(.data)
    pxDelayedTaskList                        0x200002b4   Data           4  tasks.o(.data)
    pxOverflowDelayedTaskList                0x200002b8   Data           4  tasks.o(.data)
    .data                                    0x200002bc   Section       32  heap_4.o(.data)
    pxEnd                                    0x200002bc   Data           4  heap_4.o(.data)
    xFreeBytesRemaining                      0x200002c0   Data           4  heap_4.o(.data)
    xMinimumEverFreeBytesRemaining           0x200002c4   Data           4  heap_4.o(.data)
    xNumberOfSuccessfulAllocations           0x200002c8   Data           4  heap_4.o(.data)
    xNumberOfSuccessfulFrees                 0x200002cc   Data           4  heap_4.o(.data)
    xBlockAllocatedBit                       0x200002d0   Data           4  heap_4.o(.data)
    xStart                                   0x200002d4   Data           8  heap_4.o(.data)
    .data                                    0x200002dc   Section       12  port.o(.data)
    ucMaxSysCallPriority                     0x200002dc   Data           1  port.o(.data)
    uxCriticalNesting                        0x200002e0   Data           4  port.o(.data)
    ulMaxPRIGROUPValue                       0x200002e4   Data           4  port.o(.data)
    .data                                    0x200002e8   Section        4  mvars.o(.data)
    .data                                    0x200002ec   Section        4  mvars.o(.data)
    .data                                    0x200002f0   Section        4  errno.o(.data)
    _errno                                   0x200002f0   Data           4  errno.o(.data)
    .bss                                     0x200002f4   Section      720  main.o(.bss)
    .bss                                     0x200005c4   Section      596  freertos.o(.bss)
    xIdleTaskTCBBuffer                       0x200005c4   Data          84  freertos.o(.bss)
    xIdleStack                               0x20000618   Data         512  freertos.o(.bss)
    .bss                                     0x20000818   Section       64  tim.o(.bss)
    .bss                                     0x20000858   Section      960  stm32f4xx_hal_can.o(.bss)
    .bss                                     0x20000c18   Section      624  can_receive.o(.bss)
    gimbal_tx_message                        0x20000e58   Data          24  can_receive.o(.bss)
    chassis_tx_message                       0x20000e70   Data          24  can_receive.o(.bss)
    .bss                                     0x20000e88   Section       80  can.o(.bss)
    .bss                                     0x20000ed8   Section      200  sbus.o(.bss)
    .bss                                     0x20000fa0   Section      288  usart.o(.bss)
    .bss                                     0x200010c0   Section       96  usart.o(.bss)
    .bss                                     0x20001120   Section     1152  chassis.o(.bss)
    .bss                                     0x200015a0   Section      740  superstratum.o(.bss)
    .bss                                     0x20001884   Section       16  superstratum.o(.bss)
    .bss                                     0x20001894   Section       80  add.o(.bss)
    .bss                                     0x200018e4   Section      306  hwt101.o(.bss)
    aRxBuffer                                0x200018e4   Data         250  hwt101.o(.bss)
    .bss                                     0x20001a18   Section      240  tasks.o(.bss)
    pxReadyTasksLists                        0x20001a18   Data         140  tasks.o(.bss)
    xDelayedTaskList1                        0x20001aa4   Data          20  tasks.o(.bss)
    xDelayedTaskList2                        0x20001ab8   Data          20  tasks.o(.bss)
    xPendingReadyList                        0x20001acc   Data          20  tasks.o(.bss)
    xTasksWaitingTermination                 0x20001ae0   Data          20  tasks.o(.bss)
    xSuspendedTaskList                       0x20001af4   Data          20  tasks.o(.bss)
    .bss                                     0x20001b08   Section    20480  heap_4.o(.bss)
    ucHeap                                   0x20001b08   Data       20480  heap_4.o(.bss)
    HEAP                                     0x20006b08   Section      512  startup_stm32f429xx.o(HEAP)
    STACK                                    0x20006d08   Section     1024  startup_stm32f429xx.o(STACK)

    Global Symbols

    Symbol Name                              Value     Ov Type        Size  Object(Section)

    BuildAttributes$$THM_ISAv4$E$P$D$K$B$S$7EM$VFPi3$EXTD16$VFPS$VFMA$PE$A:L22UL41UL21$X:L11$S22US41US21$IEEE1$IW$USESV6$~STKCKD$USESV7$~SHL$OTIME$ROPI$IEEEX$EBA8$MICROLIB$REQ8$PRES8$EABIv2 0x00000000   Number         0  anon$$obj.o ABSOLUTE
    __ARM_use_no_argv                        0x00000000   Number         0  main.o ABSOLUTE
    __arm_fini_                               - Undefined Weak Reference
    __cpp_initialize__aeabi_                  - Undefined Weak Reference
    __cxa_finalize                            - Undefined Weak Reference
    _clock_init                               - Undefined Weak Reference
    _microlib_exit                            - Undefined Weak Reference
    __Vectors_Size                           0x000001ac   Number         0  startup_stm32f429xx.o ABSOLUTE
    __Vectors                                0x08000000   Data           4  startup_stm32f429xx.o(RESET)
    __Vectors_End                            0x080001ac   Data           0  startup_stm32f429xx.o(RESET)
    __main                                   0x080001ad   Thumb Code     0  entry.o(.ARM.Collect$$$$00000000)
    _main_stk                                0x080001ad   Thumb Code     0  entry2.o(.ARM.Collect$$$$00000001)
    _main_scatterload                        0x080001b1   Thumb Code     0  entry5.o(.ARM.Collect$$$$00000004)
    __main_after_scatterload                 0x080001b5   Thumb Code     0  entry5.o(.ARM.Collect$$$$00000004)
    _main_clock                              0x080001b5   Thumb Code     0  entry7b.o(.ARM.Collect$$$$00000008)
    _main_cpp_init                           0x080001b5   Thumb Code     0  entry8b.o(.ARM.Collect$$$$0000000A)
    _main_init                               0x080001b5   Thumb Code     0  entry9a.o(.ARM.Collect$$$$0000000B)
    __rt_lib_shutdown_fini                   0x080001bd   Thumb Code     0  entry12b.o(.ARM.Collect$$$$0000000E)
    __rt_final_cpp                           0x080001c1   Thumb Code     0  entry10a.o(.ARM.Collect$$$$0000000F)
    __rt_final_exit                          0x080001c1   Thumb Code     0  entry11a.o(.ARM.Collect$$$$00000011)
    SVC_Handler                              0x080001c5   Thumb Code    28  port.o(.emb_text)
    __asm___6_port_c_39a90d8d__prvStartFirstTask 0x080001e5   Thumb Code    36  port.o(.emb_text)
    __asm___6_port_c_39a90d8d__prvEnableVFP  0x0800020d   Thumb Code    16  port.o(.emb_text)
    PendSV_Handler                           0x08000221   Thumb Code    88  port.o(.emb_text)
    vPortGetIPSR                             0x0800027d   Thumb Code     6  port.o(.emb_text)
    Reset_Handler                            0x08000285   Thumb Code     8  startup_stm32f429xx.o(.text)
    ADC_IRQHandler                           0x0800029f   Thumb Code     0  startup_stm32f429xx.o(.text)
    CAN1_RX1_IRQHandler                      0x0800029f   Thumb Code     0  startup_stm32f429xx.o(.text)
    CAN1_SCE_IRQHandler                      0x0800029f   Thumb Code     0  startup_stm32f429xx.o(.text)
    CAN1_TX_IRQHandler                       0x0800029f   Thumb Code     0  startup_stm32f429xx.o(.text)
    CAN2_SCE_IRQHandler                      0x0800029f   Thumb Code     0  startup_stm32f429xx.o(.text)
    CAN2_TX_IRQHandler                       0x0800029f   Thumb Code     0  startup_stm32f429xx.o(.text)
    DCMI_IRQHandler                          0x0800029f   Thumb Code     0  startup_stm32f429xx.o(.text)
    DMA1_Stream0_IRQHandler                  0x0800029f   Thumb Code     0  startup_stm32f429xx.o(.text)
    DMA1_Stream2_IRQHandler                  0x0800029f   Thumb Code     0  startup_stm32f429xx.o(.text)
    DMA1_Stream3_IRQHandler                  0x0800029f   Thumb Code     0  startup_stm32f429xx.o(.text)
    DMA1_Stream4_IRQHandler                  0x0800029f   Thumb Code     0  startup_stm32f429xx.o(.text)
    DMA1_Stream5_IRQHandler                  0x0800029f   Thumb Code     0  startup_stm32f429xx.o(.text)
    DMA1_Stream6_IRQHandler                  0x0800029f   Thumb Code     0  startup_stm32f429xx.o(.text)
    DMA1_Stream7_IRQHandler                  0x0800029f   Thumb Code     0  startup_stm32f429xx.o(.text)
    DMA2D_IRQHandler                         0x0800029f   Thumb Code     0  startup_stm32f429xx.o(.text)
    DMA2_Stream0_IRQHandler                  0x0800029f   Thumb Code     0  startup_stm32f429xx.o(.text)
    DMA2_Stream1_IRQHandler                  0x0800029f   Thumb Code     0  startup_stm32f429xx.o(.text)
    DMA2_Stream2_IRQHandler                  0x0800029f   Thumb Code     0  startup_stm32f429xx.o(.text)
    DMA2_Stream3_IRQHandler                  0x0800029f   Thumb Code     0  startup_stm32f429xx.o(.text)
    DMA2_Stream4_IRQHandler                  0x0800029f   Thumb Code     0  startup_stm32f429xx.o(.text)
    DMA2_Stream5_IRQHandler                  0x0800029f   Thumb Code     0  startup_stm32f429xx.o(.text)
    DMA2_Stream6_IRQHandler                  0x0800029f   Thumb Code     0  startup_stm32f429xx.o(.text)
    DMA2_Stream7_IRQHandler                  0x0800029f   Thumb Code     0  startup_stm32f429xx.o(.text)
    ETH_IRQHandler                           0x0800029f   Thumb Code     0  startup_stm32f429xx.o(.text)
    ETH_WKUP_IRQHandler                      0x0800029f   Thumb Code     0  startup_stm32f429xx.o(.text)
    EXTI0_IRQHandler                         0x0800029f   Thumb Code     0  startup_stm32f429xx.o(.text)
    EXTI15_10_IRQHandler                     0x0800029f   Thumb Code     0  startup_stm32f429xx.o(.text)
    EXTI1_IRQHandler                         0x0800029f   Thumb Code     0  startup_stm32f429xx.o(.text)
    EXTI2_IRQHandler                         0x0800029f   Thumb Code     0  startup_stm32f429xx.o(.text)
    EXTI3_IRQHandler                         0x0800029f   Thumb Code     0  startup_stm32f429xx.o(.text)
    EXTI4_IRQHandler                         0x0800029f   Thumb Code     0  startup_stm32f429xx.o(.text)
    EXTI9_5_IRQHandler                       0x0800029f   Thumb Code     0  startup_stm32f429xx.o(.text)
    FLASH_IRQHandler                         0x0800029f   Thumb Code     0  startup_stm32f429xx.o(.text)
    FMC_IRQHandler                           0x0800029f   Thumb Code     0  startup_stm32f429xx.o(.text)
    FPU_IRQHandler                           0x0800029f   Thumb Code     0  startup_stm32f429xx.o(.text)
    HASH_RNG_IRQHandler                      0x0800029f   Thumb Code     0  startup_stm32f429xx.o(.text)
    I2C1_ER_IRQHandler                       0x0800029f   Thumb Code     0  startup_stm32f429xx.o(.text)
    I2C1_EV_IRQHandler                       0x0800029f   Thumb Code     0  startup_stm32f429xx.o(.text)
    I2C2_ER_IRQHandler                       0x0800029f   Thumb Code     0  startup_stm32f429xx.o(.text)
    I2C2_EV_IRQHandler                       0x0800029f   Thumb Code     0  startup_stm32f429xx.o(.text)
    I2C3_ER_IRQHandler                       0x0800029f   Thumb Code     0  startup_stm32f429xx.o(.text)
    I2C3_EV_IRQHandler                       0x0800029f   Thumb Code     0  startup_stm32f429xx.o(.text)
    LTDC_ER_IRQHandler                       0x0800029f   Thumb Code     0  startup_stm32f429xx.o(.text)
    LTDC_IRQHandler                          0x0800029f   Thumb Code     0  startup_stm32f429xx.o(.text)
    OTG_FS_IRQHandler                        0x0800029f   Thumb Code     0  startup_stm32f429xx.o(.text)
    OTG_FS_WKUP_IRQHandler                   0x0800029f   Thumb Code     0  startup_stm32f429xx.o(.text)
    OTG_HS_EP1_IN_IRQHandler                 0x0800029f   Thumb Code     0  startup_stm32f429xx.o(.text)
    OTG_HS_EP1_OUT_IRQHandler                0x0800029f   Thumb Code     0  startup_stm32f429xx.o(.text)
    OTG_HS_IRQHandler                        0x0800029f   Thumb Code     0  startup_stm32f429xx.o(.text)
    OTG_HS_WKUP_IRQHandler                   0x0800029f   Thumb Code     0  startup_stm32f429xx.o(.text)
    PVD_IRQHandler                           0x0800029f   Thumb Code     0  startup_stm32f429xx.o(.text)
    RCC_IRQHandler                           0x0800029f   Thumb Code     0  startup_stm32f429xx.o(.text)
    RTC_Alarm_IRQHandler                     0x0800029f   Thumb Code     0  startup_stm32f429xx.o(.text)
    RTC_WKUP_IRQHandler                      0x0800029f   Thumb Code     0  startup_stm32f429xx.o(.text)
    SAI1_IRQHandler                          0x0800029f   Thumb Code     0  startup_stm32f429xx.o(.text)
    SDIO_IRQHandler                          0x0800029f   Thumb Code     0  startup_stm32f429xx.o(.text)
    SPI1_IRQHandler                          0x0800029f   Thumb Code     0  startup_stm32f429xx.o(.text)
    SPI2_IRQHandler                          0x0800029f   Thumb Code     0  startup_stm32f429xx.o(.text)
    SPI3_IRQHandler                          0x0800029f   Thumb Code     0  startup_stm32f429xx.o(.text)
    SPI4_IRQHandler                          0x0800029f   Thumb Code     0  startup_stm32f429xx.o(.text)
    SPI5_IRQHandler                          0x0800029f   Thumb Code     0  startup_stm32f429xx.o(.text)
    SPI6_IRQHandler                          0x0800029f   Thumb Code     0  startup_stm32f429xx.o(.text)
    TAMP_STAMP_IRQHandler                    0x0800029f   Thumb Code     0  startup_stm32f429xx.o(.text)
    TIM1_BRK_TIM9_IRQHandler                 0x0800029f   Thumb Code     0  startup_stm32f429xx.o(.text)
    TIM1_CC_IRQHandler                       0x0800029f   Thumb Code     0  startup_stm32f429xx.o(.text)
    TIM1_TRG_COM_TIM11_IRQHandler            0x0800029f   Thumb Code     0  startup_stm32f429xx.o(.text)
    TIM1_UP_TIM10_IRQHandler                 0x0800029f   Thumb Code     0  startup_stm32f429xx.o(.text)
    TIM2_IRQHandler                          0x0800029f   Thumb Code     0  startup_stm32f429xx.o(.text)
    TIM3_IRQHandler                          0x0800029f   Thumb Code     0  startup_stm32f429xx.o(.text)
    TIM5_IRQHandler                          0x0800029f   Thumb Code     0  startup_stm32f429xx.o(.text)
    TIM6_DAC_IRQHandler                      0x0800029f   Thumb Code     0  startup_stm32f429xx.o(.text)
    TIM7_IRQHandler                          0x0800029f   Thumb Code     0  startup_stm32f429xx.o(.text)
    TIM8_BRK_TIM12_IRQHandler                0x0800029f   Thumb Code     0  startup_stm32f429xx.o(.text)
    TIM8_CC_IRQHandler                       0x0800029f   Thumb Code     0  startup_stm32f429xx.o(.text)
    TIM8_TRG_COM_TIM14_IRQHandler            0x0800029f   Thumb Code     0  startup_stm32f429xx.o(.text)
    TIM8_UP_TIM13_IRQHandler                 0x0800029f   Thumb Code     0  startup_stm32f429xx.o(.text)
    UART4_IRQHandler                         0x0800029f   Thumb Code     0  startup_stm32f429xx.o(.text)
    UART5_IRQHandler                         0x0800029f   Thumb Code     0  startup_stm32f429xx.o(.text)
    UART7_IRQHandler                         0x0800029f   Thumb Code     0  startup_stm32f429xx.o(.text)
    UART8_IRQHandler                         0x0800029f   Thumb Code     0  startup_stm32f429xx.o(.text)
    WWDG_IRQHandler                          0x0800029f   Thumb Code     0  startup_stm32f429xx.o(.text)
    __aeabi_uldivmod                         0x080002a9   Thumb Code    98  uldiv.o(.text)
    __aeabi_memset                           0x0800030b   Thumb Code    14  memseta.o(.text)
    __aeabi_memset4                          0x0800030b   Thumb Code     0  memseta.o(.text)
    __aeabi_memset8                          0x0800030b   Thumb Code     0  memseta.o(.text)
    __aeabi_memclr                           0x08000319   Thumb Code     4  memseta.o(.text)
    __aeabi_memclr4                          0x08000319   Thumb Code     0  memseta.o(.text)
    __aeabi_memclr8                          0x08000319   Thumb Code     0  memseta.o(.text)
    memset                                   0x0800031d   Thumb Code    18  memseta.o(.text)
    __aeabi_dadd                             0x0800032f   Thumb Code   322  dadd.o(.text)
    __aeabi_dsub                             0x08000471   Thumb Code     6  dadd.o(.text)
    __aeabi_drsub                            0x08000477   Thumb Code     6  dadd.o(.text)
    __aeabi_dmul                             0x0800047d   Thumb Code   228  dmul.o(.text)
    __aeabi_ddiv                             0x08000561   Thumb Code   222  ddiv.o(.text)
    __aeabi_i2d                              0x0800063f   Thumb Code    34  dflti.o(.text)
    __aeabi_d2iz                             0x08000661   Thumb Code    62  dfixi.o(.text)
    __aeabi_f2d                              0x0800069f   Thumb Code    38  f2d.o(.text)
    __aeabi_cdcmpeq                          0x080006c5   Thumb Code     0  cdcmple.o(.text)
    __aeabi_cdcmple                          0x080006c5   Thumb Code    48  cdcmple.o(.text)
    __aeabi_cdrcmple                         0x080006f5   Thumb Code    48  cdrcmple.o(.text)
    __aeabi_d2f                              0x08000725   Thumb Code    56  d2f.o(.text)
    __aeabi_llsl                             0x0800075d   Thumb Code    30  llshl.o(.text)
    _ll_shift_l                              0x0800075d   Thumb Code     0  llshl.o(.text)
    __aeabi_llsr                             0x0800077b   Thumb Code    32  llushr.o(.text)
    _ll_ushift_r                             0x0800077b   Thumb Code     0  llushr.o(.text)
    __aeabi_lasr                             0x0800079b   Thumb Code    36  llsshr.o(.text)
    _ll_sshift_r                             0x0800079b   Thumb Code     0  llsshr.o(.text)
    __I$use$fp                               0x080007bf   Thumb Code     0  iusefp.o(.text)
    _float_round                             0x080007bf   Thumb Code    18  fepilogue.o(.text)
    _float_epilogue                          0x080007d1   Thumb Code    92  fepilogue.o(.text)
    _double_round                            0x0800082d   Thumb Code    30  depilogue.o(.text)
    _double_epilogue                         0x0800084b   Thumb Code   156  depilogue.o(.text)
    _dsqrt                                   0x080008e7   Thumb Code   162  dsqrt.o(.text)
    __scatterload                            0x08000989   Thumb Code    28  init.o(.text)
    __scatterload_rt2                        0x08000989   Thumb Code     0  init.o(.text)
    __decompress                             0x080009ad   Thumb Code     0  __dczerorl.o(.text)
    __decompress0                            0x080009ad   Thumb Code    58  __dczerorl.o(.text)
    ALL_PID_SET                              0x080009e9   Thumb Code   354  superstratum.o(i.ALL_PID_SET)
    Add_Task                                 0x08000b59   Thumb Code    12  freertos.o(i.Add_Task)
    Auto_Task                                0x08000b65   Thumb Code    16  freertos.o(i.Auto_Task)
    Auto_chassic_mode                        0x08000b79   Thumb Code  1630  auto.o(i.Auto_chassic_mode)
    Auto_control_task                        0x080011f5   Thumb Code   218  auto.o(i.Auto_control_task)
    BusFault_Handler                         0x08001301   Thumb Code     2  stm32f4xx_it.o(i.BusFault_Handler)
    CAN1_RX0_IRQHandler                      0x08001305   Thumb Code    20  stm32f4xx_it.o(i.CAN1_RX0_IRQHandler)
    CAN2_RX0_IRQHandler                      0x0800131d   Thumb Code    40  stm32f4xx_it.o(i.CAN2_RX0_IRQHandler)
    CAN2_RX1_IRQHandler                      0x0800134d   Thumb Code    14  stm32f4xx_it.o(i.CAN2_RX1_IRQHandler)
    CAN_cmd_AGV_chassis                      0x08001365   Thumb Code    88  can_receive.o(i.CAN_cmd_AGV_chassis)
    CAN_cmd_chassis                          0x080013c9   Thumb Code   116  can_receive.o(i.CAN_cmd_chassis)
    CAN_cmd_gimbal1                          0x0800144d   Thumb Code   102  can_receive.o(i.CAN_cmd_gimbal1)
    CAN_cmd_gimbal2                          0x080014c5   Thumb Code   124  can_receive.o(i.CAN_cmd_gimbal2)
    CHASSIS_Init                             0x0800154d   Thumb Code    30  chassis.o(i.CHASSIS_Init)
    CHASSIS_PID_Init                         0x08001581   Thumb Code   468  chassis.o(i.CHASSIS_PID_Init)
    Chassic_Task                             0x08001781   Thumb Code    16  freertos.o(i.Chassic_Task)
    Control_Task                             0x08001791   Thumb Code    78  chassis.o(i.Control_Task)
    DMA1_Stream1_IRQHandler                  0x080017ed   Thumb Code    18  stm32f4xx_it.o(i.DMA1_Stream1_IRQHandler)
    DebugMon_Handler                         0x08001809   Thumb Code     2  stm32f4xx_it.o(i.DebugMon_Handler)
    Error_Handler                            0x0800180b   Thumb Code     4  main.o(i.Error_Handler)
    GET_InitPinstate                         0x08001811   Thumb Code   124  auto.o(i.GET_InitPinstate)
    HAL_CAN_ActivateNotification             0x0800189d   Thumb Code    42  stm32f4xx_hal_can.o(i.HAL_CAN_ActivateNotification)
    HAL_CAN_AddTxMessage                     0x080018c9   Thumb Code   408  stm32f4xx_hal_can.o(i.HAL_CAN_AddTxMessage)
    HAL_CAN_ConfigFilter                     0x08001a85   Thumb Code   280  stm32f4xx_hal_can.o(i.HAL_CAN_ConfigFilter)
    HAL_CAN_ErrorCallback                    0x08001ba1   Thumb Code     2  stm32f4xx_hal_can.o(i.HAL_CAN_ErrorCallback)
    HAL_CAN_GetError                         0x08001ba3   Thumb Code     4  stm32f4xx_hal_can.o(i.HAL_CAN_GetError)
    HAL_CAN_GetRxFifoFillLevel               0x08001ba7   Thumb Code    34  stm32f4xx_hal_can.o(i.HAL_CAN_GetRxFifoFillLevel)
    HAL_CAN_GetRxMessage                     0x08001bc9   Thumb Code   330  stm32f4xx_hal_can.o(i.HAL_CAN_GetRxMessage)
    HAL_CAN_GetState                         0x08001d13   Thumb Code    40  stm32f4xx_hal_can.o(i.HAL_CAN_GetState)
    HAL_CAN_IRQHandler                       0x08001d3b   Thumb Code   566  stm32f4xx_hal_can.o(i.HAL_CAN_IRQHandler)
    HAL_CAN_Init                             0x08001f71   Thumb Code   298  stm32f4xx_hal_can.o(i.HAL_CAN_Init)
    HAL_CAN_MspInit                          0x0800209d   Thumb Code   326  stm32f4xx_hal_msp.o(i.HAL_CAN_MspInit)
    HAL_CAN_RxFifo0FullCallback              0x08002201   Thumb Code     2  stm32f4xx_hal_can.o(i.HAL_CAN_RxFifo0FullCallback)
    HAL_CAN_RxFifo0MsgPendingCallback        0x08002205   Thumb Code   240  can_receive.o(i.HAL_CAN_RxFifo0MsgPendingCallback)
    HAL_CAN_RxFifo1FullCallback              0x08002309   Thumb Code     2  stm32f4xx_hal_can.o(i.HAL_CAN_RxFifo1FullCallback)
    HAL_CAN_RxFifo1MsgPendingCallback        0x0800230b   Thumb Code     2  stm32f4xx_hal_can.o(i.HAL_CAN_RxFifo1MsgPendingCallback)
    HAL_CAN_SleepCallback                    0x0800230d   Thumb Code     2  stm32f4xx_hal_can.o(i.HAL_CAN_SleepCallback)
    HAL_CAN_Start                            0x08002311   Thumb Code   100  stm32f4xx_hal_can.o(i.HAL_CAN_Start)
    HAL_CAN_TxMailbox0AbortCallback          0x08002375   Thumb Code     2  stm32f4xx_hal_can.o(i.HAL_CAN_TxMailbox0AbortCallback)
    HAL_CAN_TxMailbox0CompleteCallback       0x08002377   Thumb Code     2  stm32f4xx_hal_can.o(i.HAL_CAN_TxMailbox0CompleteCallback)
    HAL_CAN_TxMailbox1AbortCallback          0x08002379   Thumb Code     2  stm32f4xx_hal_can.o(i.HAL_CAN_TxMailbox1AbortCallback)
    HAL_CAN_TxMailbox1CompleteCallback       0x0800237b   Thumb Code     2  stm32f4xx_hal_can.o(i.HAL_CAN_TxMailbox1CompleteCallback)
    HAL_CAN_TxMailbox2AbortCallback          0x0800237d   Thumb Code     2  stm32f4xx_hal_can.o(i.HAL_CAN_TxMailbox2AbortCallback)
    HAL_CAN_TxMailbox2CompleteCallback       0x0800237f   Thumb Code     2  stm32f4xx_hal_can.o(i.HAL_CAN_TxMailbox2CompleteCallback)
    HAL_CAN_WakeUpFromRxMsgCallback          0x08002381   Thumb Code     2  stm32f4xx_hal_can.o(i.HAL_CAN_WakeUpFromRxMsgCallback)
    HAL_DMA_Abort                            0x08002383   Thumb Code   166  stm32f4xx_hal_dma.o(i.HAL_DMA_Abort)
    HAL_DMA_Abort_IT                         0x08002429   Thumb Code    36  stm32f4xx_hal_dma.o(i.HAL_DMA_Abort_IT)
    HAL_DMA_GetError                         0x0800244d   Thumb Code     4  stm32f4xx_hal_dma.o(i.HAL_DMA_GetError)
    HAL_DMA_IRQHandler                       0x08002451   Thumb Code   470  stm32f4xx_hal_dma.o(i.HAL_DMA_IRQHandler)
    HAL_DMA_Init                             0x0800262d   Thumb Code   334  stm32f4xx_hal_dma.o(i.HAL_DMA_Init)
    HAL_DMA_Start_IT                         0x08002789   Thumb Code   146  stm32f4xx_hal_dma.o(i.HAL_DMA_Start_IT)
    HAL_Delay                                0x0800281d   Thumb Code    34  stm32f4xx_hal.o(i.HAL_Delay)
    HAL_GPIO_DeInit                          0x08002845   Thumb Code   360  stm32f4xx_hal_gpio.o(i.HAL_GPIO_DeInit)
    HAL_GPIO_Init                            0x080029b9   Thumb Code   586  stm32f4xx_hal_gpio.o(i.HAL_GPIO_Init)
    HAL_GPIO_ReadPin                         0x08002c19   Thumb Code    10  stm32f4xx_hal_gpio.o(i.HAL_GPIO_ReadPin)
    HAL_GPIO_WritePin                        0x08002c23   Thumb Code    10  stm32f4xx_hal_gpio.o(i.HAL_GPIO_WritePin)
    HAL_GetTick                              0x08002c2d   Thumb Code     6  stm32f4xx_hal.o(i.HAL_GetTick)
    HAL_IncTick                              0x08002c39   Thumb Code    12  stm32f4xx_hal.o(i.HAL_IncTick)
    HAL_Init                                 0x08002c49   Thumb Code    48  stm32f4xx_hal.o(i.HAL_Init)
    HAL_InitTick                             0x08002c7d   Thumb Code    54  stm32f4xx_hal.o(i.HAL_InitTick)
    HAL_MspInit                              0x08002cbd   Thumb Code    42  stm32f4xx_hal_msp.o(i.HAL_MspInit)
    HAL_NVIC_DisableIRQ                      0x08002cf1   Thumb Code    38  stm32f4xx_hal_cortex.o(i.HAL_NVIC_DisableIRQ)
    HAL_NVIC_EnableIRQ                       0x08002d17   Thumb Code    30  stm32f4xx_hal_cortex.o(i.HAL_NVIC_EnableIRQ)
    HAL_NVIC_SetPriority                     0x08002d35   Thumb Code    96  stm32f4xx_hal_cortex.o(i.HAL_NVIC_SetPriority)
    HAL_NVIC_SetPriorityGrouping             0x08002d99   Thumb Code    30  stm32f4xx_hal_cortex.o(i.HAL_NVIC_SetPriorityGrouping)
    HAL_PWREx_EnableOverDrive                0x08002dbd   Thumb Code   108  stm32f4xx_hal_pwr_ex.o(i.HAL_PWREx_EnableOverDrive)
    HAL_RCC_ClockConfig                      0x08002e35   Thumb Code   324  stm32f4xx_hal_rcc.o(i.HAL_RCC_ClockConfig)
    HAL_RCC_GetPCLK1Freq                     0x08002f91   Thumb Code    20  stm32f4xx_hal_rcc.o(i.HAL_RCC_GetPCLK1Freq)
    HAL_RCC_GetPCLK2Freq                     0x08002fb1   Thumb Code    20  stm32f4xx_hal_rcc.o(i.HAL_RCC_GetPCLK2Freq)
    HAL_RCC_GetSysClockFreq                  0x08002fd1   Thumb Code    98  stm32f4xx_hal_rcc.o(i.HAL_RCC_GetSysClockFreq)
    HAL_RCC_OscConfig                        0x08003045   Thumb Code   958  stm32f4xx_hal_rcc.o(i.HAL_RCC_OscConfig)
    HAL_SYSTICK_Config                       0x08003429   Thumb Code    38  stm32f4xx_hal_cortex.o(i.HAL_SYSTICK_Config)
    HAL_TIMEx_BreakCallback                  0x08003455   Thumb Code     2  stm32f4xx_hal_tim_ex.o(i.HAL_TIMEx_BreakCallback)
    HAL_TIMEx_CommutCallback                 0x08003457   Thumb Code     2  stm32f4xx_hal_tim_ex.o(i.HAL_TIMEx_CommutCallback)
    HAL_TIMEx_MasterConfigSynchronization    0x08003459   Thumb Code   150  stm32f4xx_hal_tim_ex.o(i.HAL_TIMEx_MasterConfigSynchronization)
    HAL_TIM_Base_Init                        0x080034ef   Thumb Code    54  stm32f4xx_hal_tim.o(i.HAL_TIM_Base_Init)
    HAL_TIM_Base_MspInit                     0x08003525   Thumb Code    54  tim.o(i.HAL_TIM_Base_MspInit)
    HAL_TIM_Base_Start_IT                    0x08003561   Thumb Code    34  stm32f4xx_hal_tim.o(i.HAL_TIM_Base_Start_IT)
    HAL_TIM_Base_Stop_IT                     0x08003583   Thumb Code    42  stm32f4xx_hal_tim.o(i.HAL_TIM_Base_Stop_IT)
    HAL_TIM_IC_CaptureCallback               0x080035ad   Thumb Code     2  stm32f4xx_hal_tim.o(i.HAL_TIM_IC_CaptureCallback)
    HAL_TIM_IRQHandler                       0x080035af   Thumb Code   364  stm32f4xx_hal_tim.o(i.HAL_TIM_IRQHandler)
    HAL_TIM_OC_DelayElapsedCallback          0x0800371b   Thumb Code     2  stm32f4xx_hal_tim.o(i.HAL_TIM_OC_DelayElapsedCallback)
    HAL_TIM_PWM_PulseFinishedCallback        0x0800371d   Thumb Code     2  stm32f4xx_hal_tim.o(i.HAL_TIM_PWM_PulseFinishedCallback)
    HAL_TIM_PeriodElapsedCallback            0x08003721   Thumb Code    44  tim.o(i.HAL_TIM_PeriodElapsedCallback)
    HAL_TIM_TriggerCallback                  0x08003761   Thumb Code     2  stm32f4xx_hal_tim.o(i.HAL_TIM_TriggerCallback)
    HAL_UARTEx_RxEventCallback               0x08003763   Thumb Code     2  stm32f4xx_hal_uart.o(i.HAL_UARTEx_RxEventCallback)
    HAL_UART_AbortReceive                    0x08003765   Thumb Code   158  stm32f4xx_hal_uart.o(i.HAL_UART_AbortReceive)
    HAL_UART_DMAStop                         0x08003803   Thumb Code   212  stm32f4xx_hal_uart.o(i.HAL_UART_DMAStop)
    HAL_UART_DeInit                          0x080038d7   Thumb Code    56  stm32f4xx_hal_uart.o(i.HAL_UART_DeInit)
    HAL_UART_ErrorCallback                   0x0800390f   Thumb Code     2  stm32f4xx_hal_uart.o(i.HAL_UART_ErrorCallback)
    HAL_UART_IRQHandler                      0x08003911   Thumb Code   772  stm32f4xx_hal_uart.o(i.HAL_UART_IRQHandler)
    HAL_UART_Init                            0x08003c19   Thumb Code   100  stm32f4xx_hal_uart.o(i.HAL_UART_Init)
    HAL_UART_MspDeInit                       0x08003c7d   Thumb Code    46  stm32f4xx_hal_msp.o(i.HAL_UART_MspDeInit)
    HAL_UART_MspInit                         0x08003cb5   Thumb Code   440  stm32f4xx_hal_msp.o(i.HAL_UART_MspInit)
    HAL_UART_Receive_DMA                     0x08003e89   Thumb Code    32  stm32f4xx_hal_uart.o(i.HAL_UART_Receive_DMA)
    HAL_UART_Receive_IT                      0x08003ea9   Thumb Code    82  stm32f4xx_hal_uart.o(i.HAL_UART_Receive_IT)
    HAL_UART_RxCpltCallback                  0x08003efd   Thumb Code   358  sbus.o(i.HAL_UART_RxCpltCallback)
    HAL_UART_RxHalfCpltCallback              0x08004089   Thumb Code     2  stm32f4xx_hal_uart.o(i.HAL_UART_RxHalfCpltCallback)
    HAL_UART_Transmit                        0x0800408d   Thumb Code   338  stm32f4xx_hal_uart.o(i.HAL_UART_Transmit)
    HAL_UART_TxCpltCallback                  0x080041df   Thumb Code     2  stm32f4xx_hal_uart.o(i.HAL_UART_TxCpltCallback)
    HWT605_Data                              0x080041e1   Thumb Code   278  hwt101.o(i.HWT605_Data)
    Hair_ring_Init                           0x08004331   Thumb Code    66  superstratum.o(i.Hair_ring_Init)
    HardFault_Handler                        0x0800439d   Thumb Code     2  stm32f4xx_it.o(i.HardFault_Handler)
    MX_CAN1_Init                             0x080043a1   Thumb Code   128  can.o(i.MX_CAN1_Init)
    MX_CAN2_Init1                            0x0800442d   Thumb Code   122  can.o(i.MX_CAN2_Init1)
    MX_DMA_Init                              0x080044b5   Thumb Code    40  usart.o(i.MX_DMA_Init)
    MX_FREERTOS_Init                         0x080044e1   Thumb Code   166  freertos.o(i.MX_FREERTOS_Init)
    MX_GPIO_Init                             0x08004591   Thumb Code   268  main.o(i.MX_GPIO_Init)
    MX_TIM4_Init                             0x080046b1   Thumb Code    68  tim.o(i.MX_TIM4_Init)
    MX_USART1_UART_Init                      0x080046fd   Thumb Code    62  usart.o(i.MX_USART1_UART_Init)
    MX_USART2_UART_Init                      0x0800474d   Thumb Code    54  usart.o(i.MX_USART2_UART_Init)
    MX_USART3_UART_Init                      0x08004791   Thumb Code    68  usart.o(i.MX_USART3_UART_Init)
    MX_USART6_UART_Init                      0x080047e1   Thumb Code    56  usart.o(i.MX_USART6_UART_Init)
    MemManage_Handler                        0x08004825   Thumb Code     2  stm32f4xx_it.o(i.MemManage_Handler)
    Mode_Task                                0x08004829   Thumb Code    20  freertos.o(i.Mode_Task)
    NMI_Handler                              0x08004841   Thumb Code     2  stm32f4xx_it.o(i.NMI_Handler)
    PID_Init                                 0x08004845   Thumb Code    58  pid.o(i.PID_Init)
    PID_SET                                  0x08004885   Thumb Code    18  pid.o(i.PID_SET)
    PID_incremental                          0x08004899   Thumb Code   214  pid.o(i.PID_incremental)
    PID_position                             0x08004975   Thumb Code   150  pid.o(i.PID_position)
    Protect_Task                             0x08004a0b   Thumb Code     8  freertos.o(i.Protect_Task)
    SYSTEM_Init_only                         0x08004a13   Thumb Code     8  hwt101.o(i.SYSTEM_Init_only)
    Speed_loop                               0x08004a1d   Thumb Code   580  chassis.o(i.Speed_loop)
    Steer                                    0x08004c75   Thumb Code    38  chassis.o(i.Steer)
    Superstratum_Task                        0x08004ca5   Thumb Code    12  freertos.o(i.Superstratum_Task)
    SysTick_Handler                          0x08004cb1   Thumb Code    24  stm32f4xx_it.o(i.SysTick_Handler)
    SystemClock_Config                       0x08004cc9   Thumb Code   150  main.o(i.SystemClock_Config)
    SystemInit                               0x08004d69   Thumb Code    20  system_stm32f4xx.o(i.SystemInit)
    TIM4_IRQHandler                          0x08004d85   Thumb Code     6  stm32f4xx_it.o(i.TIM4_IRQHandler)
    TIM_Base_SetConfig                       0x08004d91   Thumb Code   184  stm32f4xx_hal_tim.o(i.TIM_Base_SetConfig)
    Target_speed                             0x08004e61   Thumb Code   578  chassis.o(i.Target_speed)
    UART_Start_Receive_DMA                   0x08005435   Thumb Code   148  stm32f4xx_hal_uart.o(i.UART_Start_Receive_DMA)
    USART1_IRQHandler                        0x08005591   Thumb Code     6  stm32f4xx_it.o(i.USART1_IRQHandler)
    USART2_IRQHandler                        0x0800559d   Thumb Code     6  stm32f4xx_it.o(i.USART2_IRQHandler)
    USART3_IRQHandler                        0x080055a9   Thumb Code    18  stm32f4xx_it.o(i.USART3_IRQHandler)
    USART6_IRQHandler                        0x080055c1   Thumb Code     6  stm32f4xx_it.o(i.USART6_IRQHandler)
    USER_GYRO_IDLE_IRQHandler                0x080055cd   Thumb Code   158  hwt101.o(i.USER_GYRO_IDLE_IRQHandler)
    UsageFault_Handler                       0x0800567d   Thumb Code     2  stm32f4xx_it.o(i.UsageFault_Handler)
    __ARM_fpclassify                         0x0800567f   Thumb Code    48  fpclassify.o(i.__ARM_fpclassify)
    __hardfp_atan                            0x080056b1   Thumb Code   622  atan.o(i.__hardfp_atan)
    __hardfp_atan2                           0x08005989   Thumb Code   448  atan2.o(i.__hardfp_atan2)
    __hardfp_sqrt                            0x08005b89   Thumb Code   122  sqrt.o(i.__hardfp_sqrt)
    __kernel_poly                            0x08005c03   Thumb Code   248  poly.o(i.__kernel_poly)
    __mathlib_dbl_infnan                     0x08005cfb   Thumb Code    20  dunder.o(i.__mathlib_dbl_infnan)
    __mathlib_dbl_infnan2                    0x08005d0f   Thumb Code    20  dunder.o(i.__mathlib_dbl_infnan2)
    __mathlib_dbl_underflow                  0x08005d29   Thumb Code    24  dunder.o(i.__mathlib_dbl_underflow)
    __scatterload_copy                       0x08005d49   Thumb Code    14  handlers.o(i.__scatterload_copy)
    __scatterload_null                       0x08005d57   Thumb Code     2  handlers.o(i.__scatterload_null)
    __scatterload_zeroinit                   0x08005d59   Thumb Code    14  handlers.o(i.__scatterload_zeroinit)
    __set_errno                              0x08005d69   Thumb Code     6  errno.o(i.__set_errno)
    atan                                     0x08005d75   Thumb Code    16  atan.o(i.atan)
    auto_control_state                       0x08005d89   Thumb Code   950  auto.o(i.auto_control_state)
    calculateJoystickIncrement               0x08006199   Thumb Code    54  superstratum.o(i.calculateJoystickIncrement)
    chassis_limit                            0x080061d5   Thumb Code   566  chassis.o(i.chassis_limit)
    checkRxBufferTimeout                     0x0800640d   Thumb Code   110  sbus.o(i.checkRxBufferTimeout)
    control_sup                              0x08006499   Thumb Code   100  auto.o(i.control_sup)
    control_sup_task                         0x08006531   Thumb Code   212  superstratum.o(i.control_sup_task)
    diancifa                                 0x0800663d   Thumb Code    60  superstratum.o(i.diancifa)
    fabs                                     0x08006685   Thumb Code    24  fabs.o(i.fabs)
    fifio_Init                               0x0800669d   Thumb Code     2  can.o(i.fifio_Init)
    free                                     0x080066a1   Thumb Code    76  malloc.o(i.free)
    get_MotorTotalAngle                      0x080066f1   Thumb Code   196  can_receive.o(i.get_MotorTotalAngle)
    main                                     0x080067c5   Thumb Code   168  main.o(i.main)
    malloc                                   0x08006895   Thumb Code    92  malloc.o(i.malloc)
    mode_judge                               0x08006901   Thumb Code   170  mode_choic.o(i.mode_judge)
    motion                                   0x080069bd   Thumb Code   110  superstratum.o(i.motion)
    osDelay                                  0x08006a3d   Thumb Code    16  cmsis_os.o(i.osDelay)
    osKernelStart                            0x08006a4d   Thumb Code    10  cmsis_os.o(i.osKernelStart)
    osKernelSysTick                          0x08006a57   Thumb Code    14  cmsis_os.o(i.osKernelSysTick)
    osThreadCreate                           0x08006a65   Thumb Code   104  cmsis_os.o(i.osThreadCreate)
    processReceivedData_R                    0x08006acd   Thumb Code   146  sbus.o(i.processReceivedData_R)
    processReceivedData_V                    0x08006b69   Thumb Code   146  sbus.o(i.processReceivedData_V)
    pvPortMalloc                             0x08006e15   Thumb Code   386  heap_4.o(i.pvPortMalloc)
    pxPortInitialiseStack                    0x08006fa5   Thumb Code    38  port.o(i.pxPortInitialiseStack)
    remote_control                           0x08006fd1   Thumb Code  1256  superstratum.o(i.remote_control)
    remote_control_                          0x080074d1   Thumb Code   360  chassis.o(i.remote_control_)
    sbus_decoder                             0x08007665   Thumb Code   308  sbus.o(i.sbus_decoder)
    sup_add_task                             0x080077a1   Thumb Code   296  add.o(i.sup_add_task)
    usart_send_char                          0x080078ed   Thumb Code    50  niming.o(i.usart_send_char)
    usart_send_message                       0x08007925   Thumb Code   136  auto.o(i.usart_send_message)
    uxListRemove                             0x080079b5   Thumb Code    38  list.o(i.uxListRemove)
    vApplicationGetIdleTaskMemory            0x080079dd   Thumb Code    16  freertos.o(i.vApplicationGetIdleTaskMemory)
    vListInitialise                          0x080079f1   Thumb Code    22  list.o(i.vListInitialise)
    vListInitialiseItem                      0x08007a07   Thumb Code     6  list.o(i.vListInitialiseItem)
    vListInsert                              0x08007a0d   Thumb Code    58  list.o(i.vListInsert)
    vListInsertEnd                           0x08007a47   Thumb Code    24  list.o(i.vListInsertEnd)
    vPortEnterCritical                       0x08007a61   Thumb Code    56  port.o(i.vPortEnterCritical)
    vPortExitCritical                        0x08007aa1   Thumb Code    38  port.o(i.vPortExitCritical)
    vPortFree                                0x08007acd   Thumb Code   158  heap_4.o(i.vPortFree)
    vPortSetupTimerInterrupt                 0x08007b75   Thumb Code    32  port.o(i.vPortSetupTimerInterrupt)
    vPortValidateInterruptPriority           0x08007b99   Thumb Code    74  port.o(i.vPortValidateInterruptPriority)
    vTaskDelay                               0x08007bed   Thumb Code    66  tasks.o(i.vTaskDelay)
    vTaskStartScheduler                      0x08007c39   Thumb Code    90  tasks.o(i.vTaskStartScheduler)
    vTaskSuspendAll                          0x08007ca5   Thumb Code    10  tasks.o(i.vTaskSuspendAll)
    vTaskSwitchContext                       0x08007cb5   Thumb Code    84  tasks.o(i.vTaskSwitchContext)
    value_init                               0x08007d11   Thumb Code   198  auto.o(i.value_init)
    xPortStartScheduler                      0x08007df5   Thumb Code   232  port.o(i.xPortStartScheduler)
    xPortSysTickHandler                      0x08007ef9   Thumb Code    38  port.o(i.xPortSysTickHandler)
    xTaskCreate                              0x08007f25   Thumb Code   182  tasks.o(i.xTaskCreate)
    xTaskCreateStatic                        0x08007fdb   Thumb Code   208  tasks.o(i.xTaskCreateStatic)
    xTaskGetSchedulerState                   0x080080ad   Thumb Code    24  tasks.o(i.xTaskGetSchedulerState)
    xTaskGetTickCount                        0x080080c9   Thumb Code     6  tasks.o(i.xTaskGetTickCount)
    xTaskGetTickCountFromISR                 0x080080d5   Thumb Code    12  tasks.o(i.xTaskGetTickCountFromISR)
    xTaskIncrementTick                       0x080080e5   Thumb Code   226  tasks.o(i.xTaskIncrementTick)
    xTaskResumeAll                           0x080081d1   Thumb Code   426  tasks.o(i.xTaskResumeAll)
    AHBPrescTable                            0x08008438   Data          16  system_stm32f4xx.o(.constdata)
    APBPrescTable                            0x08008448   Data           8  system_stm32f4xx.o(.constdata)
    __mathlib_zero                           0x080084e8   Data           8  qnan.o(.constdata)
    Region$$Table$$Base                      0x08008538   Number         0  anon$$obj.o(Region$$Table)
    Region$$Table$$Limit                     0x08008558   Number         0  anon$$obj.o(Region$$Table)
    pinstate                                 0x20000000   Data           4  main.o(.data)
    Oi                                       0x20000004   Data           4  main.o(.data)
    aaaaa                                    0x20000008   Data           4  main.o(.data)
    e2                                       0x2000000c   Data           4  stm32f4xx_it.o(.data)
    final                                    0x20000010   Data           4  stm32f4xx_it.o(.data)
    final1                                   0x20000014   Data           4  stm32f4xx_it.o(.data)
    e1                                       0x20000018   Data           4  stm32f4xx_it.o(.data)
    aaaaaaa                                  0x2000001c   Data           4  stm32f4xx_it.o(.data)
    ccccv                                    0x20000020   Data           4  stm32f4xx_hal_msp.o(.data)
    abcde                                    0x20000024   Data           4  freertos.o(.data)
    testt                                    0x20000028   Data           4  freertos.o(.data)
    defaultTaskHandle                        0x2000002c   Data           4  freertos.o(.data)
    myTask02Handle                           0x20000030   Data           4  freertos.o(.data)
    myTask03Handle                           0x20000034   Data           4  freertos.o(.data)
    myTask04Handle                           0x20000038   Data           4  freertos.o(.data)
    myTask05Handle                           0x2000003c   Data           4  freertos.o(.data)
    myTask06Handle                           0x20000040   Data           4  freertos.o(.data)
    cnt                                      0x20000044   Data           4  tim.o(.data)
    i                                        0x20000048   Data           4  stm32f4xx_hal_can.o(.data)
    j                                        0x2000004c   Data           4  stm32f4xx_hal_can.o(.data)
    uwTickFreq                               0x20000050   Data           1  stm32f4xx_hal.o(.data)
    uwTickPrio                               0x20000054   Data           4  stm32f4xx_hal.o(.data)
    uwTick                                   0x20000058   Data           4  stm32f4xx_hal.o(.data)
    SystemCoreClock                          0x2000005c   Data           4  system_stm32f4xx.o(.data)
    mark                                     0x20000064   Data           4  can_receive.o(.data)
    a                                        0x20000068   Data           4  can_receive.o(.data)
    interruptFlags1                          0x2000006c   Data           4  can_receive.o(.data)
    interruptFlags2                          0x20000070   Data           4  can_receive.o(.data)
    interruptFlags3                          0x20000074   Data           4  can_receive.o(.data)
    interruptFlags4                          0x20000078   Data           4  can_receive.o(.data)
    abcdef                                   0x2000007c   Data           4  can_receive.o(.data)
    abcdef1                                  0x20000080   Data           4  can_receive.o(.data)
    tset2                                    0x20000094   Data           4  can.o(.data)
    aaaaaa                                   0x20000098   Data           4  can.o(.data)
    tset1                                    0x2000009c   Data           4  can.o(.data)
    sbus_flag                                0x200000a0   Data           1  sbus.o(.data)
    receiving_data                           0x200000a1   Data           1  sbus.o(.data)
    receiving_data1                          0x200000a2   Data           1  sbus.o(.data)
    rx_V2                                    0x200000a4   Data           4  sbus.o(.data)
    sbus_data_length                         0x200000a8   Data           4  sbus.o(.data)
    rx_V1                                    0x200000ac   Data           4  sbus.o(.data)
    test_r1                                  0x200000b0   Data           4  sbus.o(.data)
    test_r2                                  0x200000b4   Data           4  sbus.o(.data)
    test_r3                                  0x200000b8   Data           4  sbus.o(.data)
    test_r4                                  0x200000bc   Data           4  sbus.o(.data)
    test_r5                                  0x200000c0   Data           4  sbus.o(.data)
    test_r6                                  0x200000c4   Data           4  sbus.o(.data)
    last_receive_time1                       0x200000c8   Data           4  usart.o(.data)
    g_uasat1_rx_flag                         0x200000cc   Data           1  usart.o(.data)
    last_receive_time                        0x200000d0   Data           4  usart.o(.data)
    err                                      0x200000d4   Data           4  pid.o(.data)
    init6020_1                               0x200000d8   Data           2  chassis.o(.data)
    init6020_2                               0x200000da   Data           2  chassis.o(.data)
    init6020_3                               0x200000dc   Data           2  chassis.o(.data)
    init6020_4                               0x200000de   Data           2  chassis.o(.data)
    cut                                      0x200000e0   Data           4  chassis.o(.data)
    fangxiang                                0x200000e4   Data           4  chassis.o(.data)
    last_fangxiang                           0x200000e8   Data           4  chassis.o(.data)
    angle_6020                               0x200000ec   Data           4  chassis.o(.data)
    v                                        0x200000f0   Data           8  chassis.o(.data)
    x                                        0x200000f8   Data           8  chassis.o(.data)
    y                                        0x20000100   Data           8  chassis.o(.data)
    debug_usart                              0x20000108   Data           4  niming.o(.data)
    change_mode_flag                         0x2000010c   Data           1  superstratum.o(.data)
    M_flag2                                  0x2000010e   Data           2  superstratum.o(.data)
    M_Lif_L_Init                             0x20000110   Data           2  superstratum.o(.data)
    M_Lif_R_Init                             0x20000112   Data           2  superstratum.o(.data)
    M_flag                                   0x20000114   Data           2  superstratum.o(.data)
    Str_angle_max                            0x20000118   Data           4  superstratum.o(.data)
    Pit_angle_min                            0x2000011c   Data           4  superstratum.o(.data)
    Lif_angle_max                            0x20000120   Data           4  superstratum.o(.data)
    Str_angle_min                            0x20000124   Data           4  superstratum.o(.data)
    Pit_angle_max                            0x20000128   Data           4  superstratum.o(.data)
    Lif_angle_min                            0x2000012c   Data           4  superstratum.o(.data)
    P2                                       0x20000130   Data           4  superstratum.o(.data)
    D_flag2                                  0x20000134   Data           4  superstratum.o(.data)
    tesssst1                                 0x20000138   Data           4  superstratum.o(.data)
    L_L                                      0x2000013c   Data           4  superstratum.o(.data)
    L_R                                      0x20000140   Data           4  superstratum.o(.data)
    S_L                                      0x20000144   Data           4  superstratum.o(.data)
    S_R                                      0x20000148   Data           4  superstratum.o(.data)
    P                                        0x2000014c   Data           4  superstratum.o(.data)
    L_L2                                     0x20000150   Data           4  superstratum.o(.data)
    L_R2                                     0x20000154   Data           4  superstratum.o(.data)
    S_L2                                     0x20000158   Data           4  superstratum.o(.data)
    S_R2                                     0x2000015c   Data           4  superstratum.o(.data)
    D_flag                                   0x20000160   Data           4  superstratum.o(.data)
    D_flag1                                  0x20000164   Data           4  superstratum.o(.data)
    control_current_State                    0x20000168   Data           1  mode_choic.o(.data)
    control_current                          0x20000169   Data           1  mode_choic.o(.data)
    int2                                     0x2000016c   Data           4  mode_choic.o(.data)
    turn_flag2                               0x20000170   Data           1  auto.o(.data)
    ball_g                                   0x20000171   Data           1  auto.o(.data)
    canot_get_ball_cnt                       0x20000172   Data           1  auto.o(.data)
    super_control_Stack                      0x20000173   Data           1  auto.o(.data)
    canot_flag                               0x20000174   Data           1  auto.o(.data)
    Sinit_flag1                              0x20000175   Data           1  auto.o(.data)
    Pinit_flag1                              0x20000176   Data           1  auto.o(.data)
    Sinit_flag2                              0x20000177   Data           1  auto.o(.data)
    first                                    0x20000178   Data           1  auto.o(.data)
    qianjinburangRADAR                       0x20000179   Data           1  auto.o(.data)
    ball_canget                              0x2000017a   Data           1  auto.o(.data)
    ball_got                                 0x2000017b   Data           1  auto.o(.data)
    ballcanget_flag                          0x2000017c   Data           1  auto.o(.data)
    can_s_flag                               0x2000017d   Data           1  auto.o(.data)
    change_flag                              0x2000017e   Data           1  auto.o(.data)
    Pinit_flag2                              0x2000017f   Data           1  auto.o(.data)
    turn_flag                                0x20000180   Data           1  auto.o(.data)
    turn_90_flag                             0x20000181   Data           1  auto.o(.data)
    Pit_Init                                 0x20000184   Data           4  auto.o(.data)
    tesst4                                   0x20000188   Data           4  auto.o(.data)
    have_arrivied                            0x2000018c   Data           4  auto.o(.data)
    XXXX                                     0x20000190   Data           4  auto.o(.data)
    YYYY                                     0x20000194   Data           4  auto.o(.data)
    to2_1                                    0x20000198   Data           4  auto.o(.data)
    jiazhuacnt                               0x2000019c   Data           4  auto.o(.data)
    tar_change_flag                          0x200001a0   Data           4  auto.o(.data)
    usa_flag22                               0x200001a4   Data           4  auto.o(.data)
    usa_count                                0x200001a8   Data           4  auto.o(.data)
    p                                        0x200001ac   Data           4  auto.o(.data)
    res                                      0x200001b0   Data           4  auto.o(.data)
    last_flag_9                              0x200001b4   Data           4  auto.o(.data)
    flag_9                                   0x200001b8   Data           4  auto.o(.data)
    flag3_9                                  0x200001bc   Data           4  auto.o(.data)
    last_flag_10                             0x200001c0   Data           4  auto.o(.data)
    flag_10                                  0x200001c4   Data           4  auto.o(.data)
    flag3_10                                 0x200001c8   Data           4  auto.o(.data)
    Lif_L_Init                               0x200001cc   Data           4  auto.o(.data)
    Lif_R_Init                               0x200001d0   Data           4  auto.o(.data)
    Str_L_Init                               0x200001d4   Data           4  auto.o(.data)
    Str_R_Init                               0x200001d8   Data           4  auto.o(.data)
    usa_flag                                 0x200001dc   Data           4  auto.o(.data)
    distance                                 0x200001e0   Data           4  auto.o(.data)
    Stre_ball_go                             0x200001e4   Data           4  auto.o(.data)
    ab                                       0x200001e8   Data           4  auto.o(.data)
    abc                                      0x200001ec   Data           4  auto.o(.data)
    CNTT                                     0x200001f0   Data           4  auto.o(.data)
    distance_s                               0x200001f4   Data           4  auto.o(.data)
    qianjinfangqiu                           0x200001f8   Data           4  auto.o(.data)
    auto_tar_angle                           0x200001fc   Data           4  auto.o(.data)
    t_angle                                  0x20000200   Data           4  auto.o(.data)
    usa_flag1                                0x20000204   Data           4  auto.o(.data)
    usa_flag2                                0x20000208   Data           4  auto.o(.data)
    usa_flag11                               0x2000020c   Data           4  auto.o(.data)
    str                                      0x20000210   Data           4  auto.o(.data)
    V                                        0x20000218   Data           8  auto.o(.data)
    message                                  0x20000220   Data          16  auto.o(.data)
    ccccvT                                   0x20000230   Data           4  add.o(.data)
    ccccvR                                   0x20000234   Data           4  add.o(.data)
    ccccvT2                                  0x20000238   Data           4  add.o(.data)
    ccccvR2                                  0x2000023c   Data           4  add.o(.data)
    mar4                                     0x20000244   Data           4  hwt101.o(.data)
    mar1                                     0x20000248   Data           4  hwt101.o(.data)
    mar2                                     0x2000024c   Data           4  hwt101.o(.data)
    mar3                                     0x20000250   Data           4  hwt101.o(.data)
    CLEAR                                    0x20000258   Data           5  hwt101.o(.data)
    SAVE_current                             0x2000025d   Data           5  hwt101.o(.data)
    CALSW                                    0x20000262   Data           5  hwt101.o(.data)
    Palstance                                0x20000268   Data           8  hwt101.o(.data)
    Angle                                    0x20000270   Data           8  hwt101.o(.data)
    CALIYAW                                  0x20000278   Data           5  hwt101.o(.data)
    pxCurrentTCB                             0x20000280   Data           4  tasks.o(.data)
    __microlib_freelist                      0x200002e8   Data           4  mvars.o(.data)
    __microlib_freelist_initialised          0x200002ec   Data           4  mvars.o(.data)
    canmsr                                   0x200002f4   Data         120  main.o(.bss)
    canmcr                                   0x2000036c   Data         120  main.o(.bss)
    canmier                                  0x200003e4   Data         120  main.o(.bss)
    can2msr                                  0x2000045c   Data         120  main.o(.bss)
    can2mcr                                  0x200004d4   Data         120  main.o(.bss)
    can2mier                                 0x2000054c   Data         120  main.o(.bss)
    htim4                                    0x20000818   Data          64  tim.o(.bss)
    can11                                    0x20000858   Data         120  stm32f4xx_hal_can.o(.bss)
    can22                                    0x200008d0   Data         120  stm32f4xx_hal_can.o(.bss)
    canm10                                   0x20000948   Data         120  stm32f4xx_hal_can.o(.bss)
    canm11                                   0x200009c0   Data         120  stm32f4xx_hal_can.o(.bss)
    canm12                                   0x20000a38   Data         120  stm32f4xx_hal_can.o(.bss)
    canm20                                   0x20000ab0   Data         120  stm32f4xx_hal_can.o(.bss)
    canm21                                   0x20000b28   Data         120  stm32f4xx_hal_can.o(.bss)
    canm22                                   0x20000ba0   Data         120  stm32f4xx_hal_can.o(.bss)
    motor_supestratum                        0x20000c18   Data         288  can_receive.o(.bss)
    motor_chassis                            0x20000d38   Data         288  can_receive.o(.bss)
    hcan1                                    0x20000e88   Data          40  can.o(.bss)
    hcan2                                    0x20000eb0   Data          40  can.o(.bss)
    sbus_struct                              0x20000ed8   Data          38  sbus.o(.bss)
    remote_buf                               0x20000efe   Data          25  sbus.o(.bss)
    rx_buffer_R                              0x20000f17   Data          17  sbus.o(.bss)
    rx_buffer_V                              0x20000f28   Data          19  sbus.o(.bss)
    receivedDataa                            0x20000f40   Data          96  sbus.o(.bss)
    huart1                                   0x20000fa0   Data          72  usart.o(.bss)
    huart2                                   0x20000fe8   Data          72  usart.o(.bss)
    huart3                                   0x20001030   Data          72  usart.o(.bss)
    huart6                                   0x20001078   Data          72  usart.o(.bss)
    hdma_usart3_rx                           0x200010c0   Data          96  usart.o(.bss)
    out_6020_angle                           0x20001120   Data          16  chassis.o(.bss)
    Chassis_Motor1_Pid                       0x20001130   Data          68  chassis.o(.bss)
    Chassis_Motor2_Pid                       0x20001174   Data          68  chassis.o(.bss)
    Chassis_Motor3_Pid                       0x200011b8   Data          68  chassis.o(.bss)
    Chassis_Motor4_Pid                       0x200011fc   Data          68  chassis.o(.bss)
    Chassis_Motor1_angle_Pid                 0x20001240   Data          68  chassis.o(.bss)
    Chassis_Motor2_angle_Pid                 0x20001284   Data          68  chassis.o(.bss)
    Chassis_Motor3_angle_Pid                 0x200012c8   Data          68  chassis.o(.bss)
    Chassis_Motor4_angle_Pid                 0x2000130c   Data          68  chassis.o(.bss)
    Chassis_Motor1_speed_Pid                 0x20001350   Data          68  chassis.o(.bss)
    Chassis_Motor2_speed_Pid                 0x20001394   Data          68  chassis.o(.bss)
    Chassis_Motor3_speed_Pid                 0x200013d8   Data          68  chassis.o(.bss)
    Chassis_Motor4_speed_Pid                 0x2000141c   Data          68  chassis.o(.bss)
    target                                   0x20001460   Data         160  chassis.o(.bss)
    output                                   0x20001500   Data         160  chassis.o(.bss)
    Uplift_Motor3_Pid                        0x200015a0   Data          68  superstratum.o(.bss)
    Uplift_Motor3_Angle_Pid                  0x200015e4   Data          68  superstratum.o(.bss)
    Uplift_Motor4_Pid                        0x20001628   Data          68  superstratum.o(.bss)
    Uplift_Motor4_Angle_Pid                  0x2000166c   Data          68  superstratum.o(.bss)
    Stretch_Motor5_Pid                       0x200016b0   Data          68  superstratum.o(.bss)
    Stretch_Motor5_Angle_Pid                 0x200016f4   Data          68  superstratum.o(.bss)
    Stretch_Motor6_Pid                       0x20001738   Data          68  superstratum.o(.bss)
    Stretch_Motor6_Angle_Pid                 0x2000177c   Data          68  superstratum.o(.bss)
    Pitch_Motor7_Pid                         0x200017c0   Data          68  superstratum.o(.bss)
    Pitch_Motor7_Angle_Pid                   0x20001804   Data          68  superstratum.o(.bss)
    fa_target                                0x20001848   Data          16  superstratum.o(.bss)
    angle                                    0x20001858   Data          44  superstratum.o(.bss)
    fa_output                                0x20001884   Data          16  superstratum.o(.bss)
    tar_arr                                  0x20001894   Data          20  add.o(.bss)
    target_limit                             0x200018a8   Data          20  add.o(.bss)
    flag_change                              0x200018bc   Data          20  add.o(.bss)
    last_flag_change                         0x200018d0   Data          20  add.o(.bss)
    All_Data                                 0x200019e0   Data          32  hwt101.o(.bss)
    kRxBuffer                                0x20001a00   Data          22  hwt101.o(.bss)
    __heap_base                              0x20006b08   Data           0  startup_stm32f429xx.o(HEAP)
    __heap_limit                             0x20006d08   Data           0  startup_stm32f429xx.o(HEAP)
    __initial_sp                             0x20007108   Data           0  startup_stm32f429xx.o(STACK)



==============================================================================

Memory Map of the image

  Image Entry point : 0x080001ad

  Load Region LR_IROM1 (Base: 0x08000000, Size: 0x0000884c, Max: 0x00100000, ABSOLUTE, COMPRESSED[0x000085a0])

    Execution Region ER_IROM1 (Exec base: 0x08000000, Load base: 0x08000000, Size: 0x00008558, Max: 0x00100000, ABSOLUTE)

    Exec Addr    Load Addr    Size         Type   Attr      Idx    E Section Name        Object

    0x08000000   0x08000000   0x000001ac   Data   RO            3    RESET               startup_stm32f429xx.o
    0x080001ac   0x080001ac   0x00000000   Code   RO         5357  * .ARM.Collect$$$$00000000  mc_w.l(entry.o)
    0x080001ac   0x080001ac   0x00000004   Code   RO         5457    .ARM.Collect$$$$00000001  mc_w.l(entry2.o)
    0x080001b0   0x080001b0   0x00000004   Code   RO         5460    .ARM.Collect$$$$00000004  mc_w.l(entry5.o)
    0x080001b4   0x080001b4   0x00000000   Code   RO         5462    .ARM.Collect$$$$00000008  mc_w.l(entry7b.o)
    0x080001b4   0x080001b4   0x00000000   Code   RO         5464    .ARM.Collect$$$$0000000A  mc_w.l(entry8b.o)
    0x080001b4   0x080001b4   0x00000008   Code   RO         5465    .ARM.Collect$$$$0000000B  mc_w.l(entry9a.o)
    0x080001bc   0x080001bc   0x00000004   Code   RO         5472    .ARM.Collect$$$$0000000E  mc_w.l(entry12b.o)
    0x080001c0   0x080001c0   0x00000000   Code   RO         5467    .ARM.Collect$$$$0000000F  mc_w.l(entry10a.o)
    0x080001c0   0x080001c0   0x00000000   Code   RO         5469    .ARM.Collect$$$$00000011  mc_w.l(entry11a.o)
    0x080001c0   0x080001c0   0x00000004   Code   RO         5458    .ARM.Collect$$$$00002712  mc_w.l(entry2.o)
    0x080001c4   0x080001c4   0x000000be   Code   RO         4864    .emb_text           port.o
    0x08000282   0x08000282   0x00000002   PAD
    0x08000284   0x08000284   0x00000024   Code   RO            4    .text               startup_stm32f429xx.o
    0x080002a8   0x080002a8   0x00000062   Code   RO         5360    .text               mc_w.l(uldiv.o)
    0x0800030a   0x0800030a   0x00000024   Code   RO         5366    .text               mc_w.l(memseta.o)
    0x0800032e   0x0800032e   0x0000014e   Code   RO         5398    .text               mf_w.l(dadd.o)
    0x0800047c   0x0800047c   0x000000e4   Code   RO         5400    .text               mf_w.l(dmul.o)
    0x08000560   0x08000560   0x000000de   Code   RO         5402    .text               mf_w.l(ddiv.o)
    0x0800063e   0x0800063e   0x00000022   Code   RO         5406    .text               mf_w.l(dflti.o)
    0x08000660   0x08000660   0x0000003e   Code   RO         5408    .text               mf_w.l(dfixi.o)
    0x0800069e   0x0800069e   0x00000026   Code   RO         5410    .text               mf_w.l(f2d.o)
    0x080006c4   0x080006c4   0x00000030   Code   RO         5412    .text               mf_w.l(cdcmple.o)
    0x080006f4   0x080006f4   0x00000030   Code   RO         5414    .text               mf_w.l(cdrcmple.o)
    0x08000724   0x08000724   0x00000038   Code   RO         5416    .text               mf_w.l(d2f.o)
    0x0800075c   0x0800075c   0x0000001e   Code   RO         5473    .text               mc_w.l(llshl.o)
    0x0800077a   0x0800077a   0x00000020   Code   RO         5475    .text               mc_w.l(llushr.o)
    0x0800079a   0x0800079a   0x00000024   Code   RO         5477    .text               mc_w.l(llsshr.o)
    0x080007be   0x080007be   0x00000000   Code   RO         5488    .text               mc_w.l(iusefp.o)
    0x080007be   0x080007be   0x0000006e   Code   RO         5489    .text               mf_w.l(fepilogue.o)
    0x0800082c   0x0800082c   0x000000ba   Code   RO         5491    .text               mf_w.l(depilogue.o)
    0x080008e6   0x080008e6   0x000000a2   Code   RO         5493    .text               mf_w.l(dsqrt.o)
    0x08000988   0x08000988   0x00000024   Code   RO         5495    .text               mc_w.l(init.o)
    0x080009ac   0x080009ac   0x0000003a   Code   RO         5507    .text               mc_w.l(__dczerorl.o)
    0x080009e6   0x080009e6   0x00000002   PAD
    0x080009e8   0x080009e8   0x00000170   Code   RO         3727    i.ALL_PID_SET       superstratum.o
    0x08000b58   0x08000b58   0x0000000c   Code   RO          450    i.Add_Task          freertos.o
    0x08000b64   0x08000b64   0x00000010   Code   RO          451    i.Auto_Task         freertos.o
    0x08000b74   0x08000b74   0x00000004   PAD
    0x08000b78   0x08000b78   0x0000067c   Code   RO         3838    i.Auto_chassic_mode  auto.o
    0x080011f4   0x080011f4   0x0000010c   Code   RO         3839    i.Auto_control_task  auto.o
    0x08001300   0x08001300   0x00000002   Code   RO          271    i.BusFault_Handler  stm32f4xx_it.o
    0x08001302   0x08001302   0x00000002   PAD
    0x08001304   0x08001304   0x00000018   Code   RO          272    i.CAN1_RX0_IRQHandler  stm32f4xx_it.o
    0x0800131c   0x0800131c   0x00000030   Code   RO          273    i.CAN2_RX0_IRQHandler  stm32f4xx_it.o
    0x0800134c   0x0800134c   0x00000018   Code   RO          274    i.CAN2_RX1_IRQHandler  stm32f4xx_it.o
    0x08001364   0x08001364   0x00000064   Code   RO         3262    i.CAN_cmd_AGV_chassis  can_receive.o
    0x080013c8   0x080013c8   0x00000084   Code   RO         3263    i.CAN_cmd_chassis   can_receive.o
    0x0800144c   0x0800144c   0x00000078   Code   RO         3264    i.CAN_cmd_gimbal1   can_receive.o
    0x080014c4   0x080014c4   0x00000088   Code   RO         3265    i.CAN_cmd_gimbal2   can_receive.o
    0x0800154c   0x0800154c   0x00000030   Code   RO         3582    i.CHASSIS_Init      chassis.o
    0x0800157c   0x0800157c   0x00000004   PAD
    0x08001580   0x08001580   0x00000200   Code   RO         3583    i.CHASSIS_PID_Init  chassis.o
    0x08001780   0x08001780   0x00000010   Code   RO          452    i.Chassic_Task      freertos.o
    0x08001790   0x08001790   0x0000005c   Code   RO         3584    i.Control_Task      chassis.o
    0x080017ec   0x080017ec   0x0000001c   Code   RO          275    i.DMA1_Stream1_IRQHandler  stm32f4xx_it.o
    0x08001808   0x08001808   0x00000002   Code   RO          276    i.DebugMon_Handler  stm32f4xx_it.o
    0x0800180a   0x0800180a   0x00000004   Code   RO           13    i.Error_Handler     main.o
    0x0800180e   0x0800180e   0x00000002   PAD
    0x08001810   0x08001810   0x0000008c   Code   RO         3841    i.GET_InitPinstate  auto.o
    0x0800189c   0x0800189c   0x0000002a   Code   RO          597    i.HAL_CAN_ActivateNotification  stm32f4xx_hal_can.o
    0x080018c6   0x080018c6   0x00000002   PAD
    0x080018c8   0x080018c8   0x000001bc   Code   RO          598    i.HAL_CAN_AddTxMessage  stm32f4xx_hal_can.o
    0x08001a84   0x08001a84   0x0000011c   Code   RO          599    i.HAL_CAN_ConfigFilter  stm32f4xx_hal_can.o
    0x08001ba0   0x08001ba0   0x00000002   Code   RO          602    i.HAL_CAN_ErrorCallback  stm32f4xx_hal_can.o
    0x08001ba2   0x08001ba2   0x00000004   Code   RO          603    i.HAL_CAN_GetError  stm32f4xx_hal_can.o
    0x08001ba6   0x08001ba6   0x00000022   Code   RO          604    i.HAL_CAN_GetRxFifoFillLevel  stm32f4xx_hal_can.o
    0x08001bc8   0x08001bc8   0x0000014a   Code   RO          605    i.HAL_CAN_GetRxMessage  stm32f4xx_hal_can.o
    0x08001d12   0x08001d12   0x00000028   Code   RO          606    i.HAL_CAN_GetState  stm32f4xx_hal_can.o
    0x08001d3a   0x08001d3a   0x00000236   Code   RO          609    i.HAL_CAN_IRQHandler  stm32f4xx_hal_can.o
    0x08001f70   0x08001f70   0x0000012a   Code   RO          610    i.HAL_CAN_Init      stm32f4xx_hal_can.o
    0x0800209a   0x0800209a   0x00000002   PAD
    0x0800209c   0x0800209c   0x00000164   Code   RO          399    i.HAL_CAN_MspInit   stm32f4xx_hal_msp.o
    0x08002200   0x08002200   0x00000002   Code   RO          617    i.HAL_CAN_RxFifo0FullCallback  stm32f4xx_hal_can.o
    0x08002202   0x08002202   0x00000002   PAD
    0x08002204   0x08002204   0x00000104   Code   RO         3266    i.HAL_CAN_RxFifo0MsgPendingCallback  can_receive.o
    0x08002308   0x08002308   0x00000002   Code   RO          619    i.HAL_CAN_RxFifo1FullCallback  stm32f4xx_hal_can.o
    0x0800230a   0x0800230a   0x00000002   Code   RO          620    i.HAL_CAN_RxFifo1MsgPendingCallback  stm32f4xx_hal_can.o
    0x0800230c   0x0800230c   0x00000002   Code   RO          621    i.HAL_CAN_SleepCallback  stm32f4xx_hal_can.o
    0x0800230e   0x0800230e   0x00000002   PAD
    0x08002310   0x08002310   0x00000064   Code   RO          622    i.HAL_CAN_Start     stm32f4xx_hal_can.o
    0x08002374   0x08002374   0x00000002   Code   RO          624    i.HAL_CAN_TxMailbox0AbortCallback  stm32f4xx_hal_can.o
    0x08002376   0x08002376   0x00000002   Code   RO          625    i.HAL_CAN_TxMailbox0CompleteCallback  stm32f4xx_hal_can.o
    0x08002378   0x08002378   0x00000002   Code   RO          626    i.HAL_CAN_TxMailbox1AbortCallback  stm32f4xx_hal_can.o
    0x0800237a   0x0800237a   0x00000002   Code   RO          627    i.HAL_CAN_TxMailbox1CompleteCallback  stm32f4xx_hal_can.o
    0x0800237c   0x0800237c   0x00000002   Code   RO          628    i.HAL_CAN_TxMailbox2AbortCallback  stm32f4xx_hal_can.o
    0x0800237e   0x0800237e   0x00000002   Code   RO          629    i.HAL_CAN_TxMailbox2CompleteCallback  stm32f4xx_hal_can.o
    0x08002380   0x08002380   0x00000002   Code   RO          631    i.HAL_CAN_WakeUpFromRxMsgCallback  stm32f4xx_hal_can.o
    0x08002382   0x08002382   0x000000a6   Code   RO         1303    i.HAL_DMA_Abort     stm32f4xx_hal_dma.o
    0x08002428   0x08002428   0x00000024   Code   RO         1304    i.HAL_DMA_Abort_IT  stm32f4xx_hal_dma.o
    0x0800244c   0x0800244c   0x00000004   Code   RO         1306    i.HAL_DMA_GetError  stm32f4xx_hal_dma.o
    0x08002450   0x08002450   0x000001dc   Code   RO         1308    i.HAL_DMA_IRQHandler  stm32f4xx_hal_dma.o
    0x0800262c   0x0800262c   0x0000015c   Code   RO         1309    i.HAL_DMA_Init      stm32f4xx_hal_dma.o
    0x08002788   0x08002788   0x00000092   Code   RO         1313    i.HAL_DMA_Start_IT  stm32f4xx_hal_dma.o
    0x0800281a   0x0800281a   0x00000002   PAD
    0x0800281c   0x0800281c   0x00000028   Code   RO         1723    i.HAL_Delay         stm32f4xx_hal.o
    0x08002844   0x08002844   0x00000174   Code   RO         1201    i.HAL_GPIO_DeInit   stm32f4xx_hal_gpio.o
    0x080029b8   0x080029b8   0x00000260   Code   RO         1204    i.HAL_GPIO_Init     stm32f4xx_hal_gpio.o
    0x08002c18   0x08002c18   0x0000000a   Code   RO         1206    i.HAL_GPIO_ReadPin  stm32f4xx_hal_gpio.o
    0x08002c22   0x08002c22   0x0000000a   Code   RO         1208    i.HAL_GPIO_WritePin  stm32f4xx_hal_gpio.o
    0x08002c2c   0x08002c2c   0x0000000c   Code   RO         1731    i.HAL_GetTick       stm32f4xx_hal.o
    0x08002c38   0x08002c38   0x00000010   Code   RO         1737    i.HAL_IncTick       stm32f4xx_hal.o
    0x08002c48   0x08002c48   0x00000034   Code   RO         1738    i.HAL_Init          stm32f4xx_hal.o
    0x08002c7c   0x08002c7c   0x00000040   Code   RO         1739    i.HAL_InitTick      stm32f4xx_hal.o
    0x08002cbc   0x08002cbc   0x00000034   Code   RO          400    i.HAL_MspInit       stm32f4xx_hal_msp.o
    0x08002cf0   0x08002cf0   0x00000026   Code   RO         1590    i.HAL_NVIC_DisableIRQ  stm32f4xx_hal_cortex.o
    0x08002d16   0x08002d16   0x0000001e   Code   RO         1591    i.HAL_NVIC_EnableIRQ  stm32f4xx_hal_cortex.o
    0x08002d34   0x08002d34   0x00000064   Code   RO         1597    i.HAL_NVIC_SetPriority  stm32f4xx_hal_cortex.o
    0x08002d98   0x08002d98   0x00000024   Code   RO         1598    i.HAL_NVIC_SetPriorityGrouping  stm32f4xx_hal_cortex.o
    0x08002dbc   0x08002dbc   0x00000078   Code   RO         1520    i.HAL_PWREx_EnableOverDrive  stm32f4xx_hal_pwr_ex.o
    0x08002e34   0x08002e34   0x0000015c   Code   RO          835    i.HAL_RCC_ClockConfig  stm32f4xx_hal_rcc.o
    0x08002f90   0x08002f90   0x00000020   Code   RO          842    i.HAL_RCC_GetPCLK1Freq  stm32f4xx_hal_rcc.o
    0x08002fb0   0x08002fb0   0x00000020   Code   RO          843    i.HAL_RCC_GetPCLK2Freq  stm32f4xx_hal_rcc.o
    0x08002fd0   0x08002fd0   0x00000074   Code   RO          844    i.HAL_RCC_GetSysClockFreq  stm32f4xx_hal_rcc.o
    0x08003044   0x08003044   0x000003e4   Code   RO          847    i.HAL_RCC_OscConfig  stm32f4xx_hal_rcc.o
    0x08003428   0x08003428   0x0000002c   Code   RO         1602    i.HAL_SYSTICK_Config  stm32f4xx_hal_cortex.o
    0x08003454   0x08003454   0x00000002   Code   RO         2626    i.HAL_TIMEx_BreakCallback  stm32f4xx_hal_tim_ex.o
    0x08003456   0x08003456   0x00000002   Code   RO         2627    i.HAL_TIMEx_CommutCallback  stm32f4xx_hal_tim_ex.o
    0x08003458   0x08003458   0x00000096   Code   RO         2644    i.HAL_TIMEx_MasterConfigSynchronization  stm32f4xx_hal_tim_ex.o
    0x080034ee   0x080034ee   0x00000036   Code   RO         1988    i.HAL_TIM_Base_Init  stm32f4xx_hal_tim.o
    0x08003524   0x08003524   0x0000003c   Code   RO          548    i.HAL_TIM_Base_MspInit  tim.o
    0x08003560   0x08003560   0x00000022   Code   RO         1993    i.HAL_TIM_Base_Start_IT  stm32f4xx_hal_tim.o
    0x08003582   0x08003582   0x0000002a   Code   RO         1996    i.HAL_TIM_Base_Stop_IT  stm32f4xx_hal_tim.o
    0x080035ac   0x080035ac   0x00000002   Code   RO         2017    i.HAL_TIM_IC_CaptureCallback  stm32f4xx_hal_tim.o
    0x080035ae   0x080035ae   0x0000016c   Code   RO         2031    i.HAL_TIM_IRQHandler  stm32f4xx_hal_tim.o
    0x0800371a   0x0800371a   0x00000002   Code   RO         2034    i.HAL_TIM_OC_DelayElapsedCallback  stm32f4xx_hal_tim.o
    0x0800371c   0x0800371c   0x00000002   Code   RO         2061    i.HAL_TIM_PWM_PulseFinishedCallback  stm32f4xx_hal_tim.o
    0x0800371e   0x0800371e   0x00000002   PAD
    0x08003720   0x08003720   0x00000040   Code   RO          549    i.HAL_TIM_PeriodElapsedCallback  tim.o
    0x08003760   0x08003760   0x00000002   Code   RO         2074    i.HAL_TIM_TriggerCallback  stm32f4xx_hal_tim.o
    0x08003762   0x08003762   0x00000002   Code   RO         2884    i.HAL_UARTEx_RxEventCallback  stm32f4xx_hal_uart.o
    0x08003764   0x08003764   0x0000009e   Code   RO         2887    i.HAL_UART_AbortReceive  stm32f4xx_hal_uart.o
    0x08003802   0x08003802   0x000000d4   Code   RO         2896    i.HAL_UART_DMAStop  stm32f4xx_hal_uart.o
    0x080038d6   0x080038d6   0x00000038   Code   RO         2897    i.HAL_UART_DeInit   stm32f4xx_hal_uart.o
    0x0800390e   0x0800390e   0x00000002   Code   RO         2898    i.HAL_UART_ErrorCallback  stm32f4xx_hal_uart.o
    0x08003910   0x08003910   0x00000308   Code   RO         2901    i.HAL_UART_IRQHandler  stm32f4xx_hal_uart.o
    0x08003c18   0x08003c18   0x00000064   Code   RO         2902    i.HAL_UART_Init     stm32f4xx_hal_uart.o
    0x08003c7c   0x08003c7c   0x00000038   Code   RO          401    i.HAL_UART_MspDeInit  stm32f4xx_hal_msp.o
    0x08003cb4   0x08003cb4   0x000001d4   Code   RO          402    i.HAL_UART_MspInit  stm32f4xx_hal_msp.o
    0x08003e88   0x08003e88   0x00000020   Code   RO         2906    i.HAL_UART_Receive_DMA  stm32f4xx_hal_uart.o
    0x08003ea8   0x08003ea8   0x00000052   Code   RO         2907    i.HAL_UART_Receive_IT  stm32f4xx_hal_uart.o
    0x08003efa   0x08003efa   0x00000002   PAD
    0x08003efc   0x08003efc   0x0000018c   Code   RO         3394    i.HAL_UART_RxCpltCallback  sbus.o
    0x08004088   0x08004088   0x00000002   Code   RO         2909    i.HAL_UART_RxHalfCpltCallback  stm32f4xx_hal_uart.o
    0x0800408a   0x0800408a   0x00000002   PAD
    0x0800408c   0x0800408c   0x00000152   Code   RO         2910    i.HAL_UART_Transmit  stm32f4xx_hal_uart.o
    0x080041de   0x080041de   0x00000002   Code   RO         2913    i.HAL_UART_TxCpltCallback  stm32f4xx_hal_uart.o
    0x080041e0   0x080041e0   0x00000150   Code   RO         4026    i.HWT605_Data       hwt101.o
    0x08004330   0x08004330   0x0000006c   Code   RO         3728    i.Hair_ring_Init    superstratum.o
    0x0800439c   0x0800439c   0x00000002   Code   RO          277    i.HardFault_Handler  stm32f4xx_it.o
    0x0800439e   0x0800439e   0x00000002   PAD
    0x080043a0   0x080043a0   0x0000008c   Code   RO         3351    i.MX_CAN1_Init      can.o
    0x0800442c   0x0800442c   0x00000088   Code   RO         3352    i.MX_CAN2_Init1     can.o
    0x080044b4   0x080044b4   0x0000002c   Code   RO         3470    i.MX_DMA_Init       usart.o
    0x080044e0   0x080044e0   0x000000b0   Code   RO          455    i.MX_FREERTOS_Init  freertos.o
    0x08004590   0x08004590   0x00000120   Code   RO           14    i.MX_GPIO_Init      main.o
    0x080046b0   0x080046b0   0x0000004c   Code   RO          550    i.MX_TIM4_Init      tim.o
    0x080046fc   0x080046fc   0x00000050   Code   RO         3471    i.MX_USART1_UART_Init  usart.o
    0x0800474c   0x0800474c   0x00000044   Code   RO         3472    i.MX_USART2_UART_Init  usart.o
    0x08004790   0x08004790   0x00000050   Code   RO         3473    i.MX_USART3_UART_Init  usart.o
    0x080047e0   0x080047e0   0x00000044   Code   RO         3474    i.MX_USART6_UART_Init  usart.o
    0x08004824   0x08004824   0x00000002   Code   RO          278    i.MemManage_Handler  stm32f4xx_it.o
    0x08004826   0x08004826   0x00000002   PAD
    0x08004828   0x08004828   0x00000018   Code   RO          456    i.Mode_Task         freertos.o
    0x08004840   0x08004840   0x00000002   Code   RO          279    i.NMI_Handler       stm32f4xx_it.o
    0x08004842   0x08004842   0x00000002   PAD
    0x08004844   0x08004844   0x00000040   Code   RO         3530    i.PID_Init          pid.o
    0x08004884   0x08004884   0x00000012   Code   RO         3531    i.PID_SET           pid.o
    0x08004896   0x08004896   0x00000002   PAD
    0x08004898   0x08004898   0x000000dc   Code   RO         3532    i.PID_incremental   pid.o
    0x08004974   0x08004974   0x00000096   Code   RO         3533    i.PID_position      pid.o
    0x08004a0a   0x08004a0a   0x00000008   Code   RO          457    i.Protect_Task      freertos.o
    0x08004a12   0x08004a12   0x00000008   Code   RO         4029    i.SYSTEM_Init_only  hwt101.o
    0x08004a1a   0x08004a1a   0x00000002   PAD
    0x08004a1c   0x08004a1c   0x00000258   Code   RO         3587    i.Speed_loop        chassis.o
    0x08004c74   0x08004c74   0x00000030   Code   RO         3588    i.Steer             chassis.o
    0x08004ca4   0x08004ca4   0x0000000c   Code   RO          458    i.Superstratum_Task  freertos.o
    0x08004cb0   0x08004cb0   0x00000018   Code   RO          280    i.SysTick_Handler   stm32f4xx_it.o
    0x08004cc8   0x08004cc8   0x000000a0   Code   RO           15    i.SystemClock_Config  main.o
    0x08004d68   0x08004d68   0x0000001c   Code   RO         3225    i.SystemInit        system_stm32f4xx.o
    0x08004d84   0x08004d84   0x0000000c   Code   RO          281    i.TIM4_IRQHandler   stm32f4xx_it.o
    0x08004d90   0x08004d90   0x000000cc   Code   RO         2076    i.TIM_Base_SetConfig  stm32f4xx_hal_tim.o
    0x08004e5c   0x08004e5c   0x00000004   PAD
    0x08004e60   0x08004e60   0x000002a0   Code   RO         3589    i.Target_speed      chassis.o
    0x08005100   0x08005100   0x00000010   Code   RO         2915    i.UART_DMAAbortOnError  stm32f4xx_hal_uart.o
    0x08005110   0x08005110   0x000000ae   Code   RO         2916    i.UART_DMAError     stm32f4xx_hal_uart.o
    0x080051be   0x080051be   0x00000098   Code   RO         2917    i.UART_DMAReceiveCplt  stm32f4xx_hal_uart.o
    0x08005256   0x08005256   0x0000001e   Code   RO         2919    i.UART_DMARxHalfCplt  stm32f4xx_hal_uart.o
    0x08005274   0x08005274   0x000000ce   Code   RO         2925    i.UART_Receive_IT   stm32f4xx_hal_uart.o
    0x08005342   0x08005342   0x00000002   PAD
    0x08005344   0x08005344   0x000000f0   Code   RO         2926    i.UART_SetConfig    stm32f4xx_hal_uart.o
    0x08005434   0x08005434   0x000000a0   Code   RO         2927    i.UART_Start_Receive_DMA  stm32f4xx_hal_uart.o
    0x080054d4   0x080054d4   0x000000ba   Code   RO         2929    i.UART_WaitOnFlagUntilTimeout  stm32f4xx_hal_uart.o
    0x0800558e   0x0800558e   0x00000002   PAD
    0x08005590   0x08005590   0x0000000c   Code   RO          282    i.USART1_IRQHandler  stm32f4xx_it.o
    0x0800559c   0x0800559c   0x0000000c   Code   RO          283    i.USART2_IRQHandler  stm32f4xx_it.o
    0x080055a8   0x080055a8   0x00000018   Code   RO          284    i.USART3_IRQHandler  stm32f4xx_it.o
    0x080055c0   0x080055c0   0x0000000c   Code   RO          285    i.USART6_IRQHandler  stm32f4xx_it.o
    0x080055cc   0x080055cc   0x000000b0   Code   RO         4030    i.USER_GYRO_IDLE_IRQHandler  hwt101.o
    0x0800567c   0x0800567c   0x00000002   Code   RO          286    i.UsageFault_Handler  stm32f4xx_it.o
    0x0800567e   0x0800567e   0x00000030   Code   RO         5441    i.__ARM_fpclassify  m_wm.l(fpclassify.o)
    0x080056ae   0x080056ae   0x00000002   PAD
    0x080056b0   0x080056b0   0x000002d8   Code   RO         5295    i.__hardfp_atan     m_wm.l(atan.o)
    0x08005988   0x08005988   0x00000200   Code   RO         5309    i.__hardfp_atan2    m_wm.l(atan2.o)
    0x08005b88   0x08005b88   0x0000007a   Code   RO         5345    i.__hardfp_sqrt     m_wm.l(sqrt.o)
    0x08005c02   0x08005c02   0x000000f8   Code   RO         5443    i.__kernel_poly     m_wm.l(poly.o)
    0x08005cfa   0x08005cfa   0x00000014   Code   RO         5422    i.__mathlib_dbl_infnan  m_wm.l(dunder.o)
    0x08005d0e   0x08005d0e   0x00000014   Code   RO         5423    i.__mathlib_dbl_infnan2  m_wm.l(dunder.o)
    0x08005d22   0x08005d22   0x00000006   PAD
    0x08005d28   0x08005d28   0x00000020   Code   RO         5427    i.__mathlib_dbl_underflow  m_wm.l(dunder.o)
    0x08005d48   0x08005d48   0x0000000e   Code   RO         5501    i.__scatterload_copy  mc_w.l(handlers.o)
    0x08005d56   0x08005d56   0x00000002   Code   RO         5502    i.__scatterload_null  mc_w.l(handlers.o)
    0x08005d58   0x08005d58   0x0000000e   Code   RO         5503    i.__scatterload_zeroinit  mc_w.l(handlers.o)
    0x08005d66   0x08005d66   0x00000002   PAD
    0x08005d68   0x08005d68   0x0000000c   Code   RO         5483    i.__set_errno       mc_w.l(errno.o)
    0x08005d74   0x08005d74   0x00000010   Code   RO         5297    i.atan              m_wm.l(atan.o)
    0x08005d84   0x08005d84   0x00000004   PAD
    0x08005d88   0x08005d88   0x00000410   Code   RO         3843    i.auto_control_state  auto.o
    0x08006198   0x08006198   0x0000003c   Code   RO         3730    i.calculateJoystickIncrement  superstratum.o
    0x080061d4   0x080061d4   0x00000236   Code   RO         3591    i.chassis_limit     chassis.o
    0x0800640a   0x0800640a   0x00000002   PAD
    0x0800640c   0x0800640c   0x0000008c   Code   RO         3396    i.checkRxBufferTimeout  sbus.o
    0x08006498   0x08006498   0x00000098   Code   RO         3845    i.control_sup       auto.o
    0x08006530   0x08006530   0x0000010c   Code   RO         3731    i.control_sup_task  superstratum.o
    0x0800663c   0x0800663c   0x00000048   Code   RO         3732    i.diancifa          superstratum.o
    0x08006684   0x08006684   0x00000018   Code   RO         5437    i.fabs              m_wm.l(fabs.o)
    0x0800669c   0x0800669c   0x00000002   Code   RO         3353    i.fifio_Init        can.o
    0x0800669e   0x0800669e   0x00000002   PAD
    0x080066a0   0x080066a0   0x00000050   Code   RO         5370    i.free              mc_w.l(malloc.o)
    0x080066f0   0x080066f0   0x000000d4   Code   RO         3267    i.get_MotorTotalAngle  can_receive.o
    0x080067c4   0x080067c4   0x000000d0   Code   RO           16    i.main              main.o
    0x08006894   0x08006894   0x0000006c   Code   RO         5371    i.malloc            mc_w.l(malloc.o)
    0x08006900   0x08006900   0x000000bc   Code   RO         3807    i.mode_judge        mode_choic.o
    0x080069bc   0x080069bc   0x00000080   Code   RO         3733    i.motion            superstratum.o
    0x08006a3c   0x08006a3c   0x00000010   Code   RO         4945    i.osDelay           cmsis_os.o
    0x08006a4c   0x08006a4c   0x0000000a   Code   RO         4948    i.osKernelStart     cmsis_os.o
    0x08006a56   0x08006a56   0x0000000e   Code   RO         4949    i.osKernelSysTick   cmsis_os.o
    0x08006a64   0x08006a64   0x00000068   Code   RO         4982    i.osThreadCreate    cmsis_os.o
    0x08006acc   0x08006acc   0x0000009c   Code   RO         3397    i.processReceivedData_R  sbus.o
    0x08006b68   0x08006b68   0x0000009c   Code   RO         3398    i.processReceivedData_V  sbus.o
    0x08006c04   0x08006c04   0x00000074   Code   RO         4517    i.prvAddCurrentTaskToDelayedList  tasks.o
    0x08006c78   0x08006c78   0x000000e4   Code   RO         4518    i.prvAddNewTaskToReadyList  tasks.o
    0x08006d5c   0x08006d5c   0x0000008c   Code   RO         4519    i.prvIdleTask       tasks.o
    0x08006de8   0x08006de8   0x0000002c   Code   RO         4865    i.prvTaskExitError  port.o
    0x08006e14   0x08006e14   0x00000190   Code   RO         4807    i.pvPortMalloc      heap_4.o
    0x08006fa4   0x08006fa4   0x0000002c   Code   RO         4866    i.pxPortInitialiseStack  port.o
    0x08006fd0   0x08006fd0   0x000004fc   Code   RO         3734    i.remote_control    superstratum.o
    0x080074cc   0x080074cc   0x00000004   PAD
    0x080074d0   0x080074d0   0x00000194   Code   RO         3592    i.remote_control_   chassis.o
    0x08007664   0x08007664   0x0000013c   Code   RO         3401    i.sbus_decoder      sbus.o
    0x080077a0   0x080077a0   0x0000014c   Code   RO         3986    i.sup_add_task      add.o
    0x080078ec   0x080078ec   0x00000038   Code   RO         3690    i.usart_send_char   niming.o
    0x08007924   0x08007924   0x00000090   Code   RO         3847    i.usart_send_message  auto.o
    0x080079b4   0x080079b4   0x00000026   Code   RO         4350    i.uxListRemove      list.o
    0x080079da   0x080079da   0x00000002   PAD
    0x080079dc   0x080079dc   0x00000014   Code   RO          459    i.vApplicationGetIdleTaskMemory  freertos.o
    0x080079f0   0x080079f0   0x00000016   Code   RO         4351    i.vListInitialise   list.o
    0x08007a06   0x08007a06   0x00000006   Code   RO         4352    i.vListInitialiseItem  list.o
    0x08007a0c   0x08007a0c   0x0000003a   Code   RO         4353    i.vListInsert       list.o
    0x08007a46   0x08007a46   0x00000018   Code   RO         4354    i.vListInsertEnd    list.o
    0x08007a5e   0x08007a5e   0x00000002   PAD
    0x08007a60   0x08007a60   0x00000040   Code   RO         4868    i.vPortEnterCritical  port.o
    0x08007aa0   0x08007aa0   0x0000002c   Code   RO         4869    i.vPortExitCritical  port.o
    0x08007acc   0x08007acc   0x000000a8   Code   RO         4808    i.vPortFree         heap_4.o
    0x08007b74   0x08007b74   0x00000024   Code   RO         4870    i.vPortSetupTimerInterrupt  port.o
    0x08007b98   0x08007b98   0x00000054   Code   RO         4871    i.vPortValidateInterruptPriority  port.o
    0x08007bec   0x08007bec   0x0000004c   Code   RO         4527    i.vTaskDelay        tasks.o
    0x08007c38   0x08007c38   0x0000006c   Code   RO         4540    i.vTaskStartScheduler  tasks.o
    0x08007ca4   0x08007ca4   0x00000010   Code   RO         4542    i.vTaskSuspendAll   tasks.o
    0x08007cb4   0x08007cb4   0x0000005c   Code   RO         4543    i.vTaskSwitchContext  tasks.o
    0x08007d10   0x08007d10   0x000000e4   Code   RO         3848    i.value_init        auto.o
    0x08007df4   0x08007df4   0x00000104   Code   RO         4872    i.xPortStartScheduler  port.o
    0x08007ef8   0x08007ef8   0x0000002c   Code   RO         4873    i.xPortSysTickHandler  port.o
    0x08007f24   0x08007f24   0x000000b6   Code   RO         4546    i.xTaskCreate       tasks.o
    0x08007fda   0x08007fda   0x000000d0   Code   RO         4547    i.xTaskCreateStatic  tasks.o
    0x080080aa   0x080080aa   0x00000002   PAD
    0x080080ac   0x080080ac   0x0000001c   Code   RO         4551    i.xTaskGetSchedulerState  tasks.o
    0x080080c8   0x080080c8   0x0000000c   Code   RO         4552    i.xTaskGetTickCount  tasks.o
    0x080080d4   0x080080d4   0x00000010   Code   RO         4553    i.xTaskGetTickCountFromISR  tasks.o
    0x080080e4   0x080080e4   0x000000ec   Code   RO         4554    i.xTaskIncrementTick  tasks.o
    0x080081d0   0x080081d0   0x000001b8   Code   RO         4560    i.xTaskResumeAll    tasks.o
    0x08008388   0x08008388   0x000000a8   Data   RO          461    .constdata          freertos.o
    0x08008430   0x08008430   0x00000008   Data   RO         1315    .constdata          stm32f4xx_hal_dma.o
    0x08008438   0x08008438   0x00000010   Data   RO         3226    .constdata          system_stm32f4xx.o
    0x08008448   0x08008448   0x00000008   Data   RO         3227    .constdata          system_stm32f4xx.o
    0x08008450   0x08008450   0x00000098   Data   RO         5298    .constdata          m_wm.l(atan.o)
    0x080084e8   0x080084e8   0x00000008   Data   RO         5445    .constdata          m_wm.l(qnan.o)
    0x080084f0   0x080084f0   0x00000048   Data   RO          462    .conststring        freertos.o
    0x08008538   0x08008538   0x00000020   Data   RO         5499    Region$$Table       anon$$obj.o


    Execution Region RW_IRAM1 (Exec base: 0x20000000, Load base: 0x08008558, Size: 0x00007108, Max: 0x00030000, ABSOLUTE, COMPRESSED[0x00000048])

    Exec Addr    Load Addr    Size         Type   Attr      Idx    E Section Name        Object

    0x20000000   COMPRESSED   0x00000004   Data   RW           20    .data               main.o
    0x20000004   COMPRESSED   0x00000008   Data   RW           21    .data               main.o
    0x2000000c   COMPRESSED   0x00000014   Data   RW          288    .data               stm32f4xx_it.o
    0x20000020   COMPRESSED   0x00000004   Data   RW          403    .data               stm32f4xx_hal_msp.o
    0x20000024   COMPRESSED   0x00000020   Data   RW          463    .data               freertos.o
    0x20000044   COMPRESSED   0x00000004   Data   RW          552    .data               tim.o
    0x20000048   COMPRESSED   0x00000008   Data   RW          633    .data               stm32f4xx_hal_can.o
    0x20000050   COMPRESSED   0x0000000c   Data   RW         1745    .data               stm32f4xx_hal.o
    0x2000005c   COMPRESSED   0x00000004   Data   RW         3228    .data               system_stm32f4xx.o
    0x20000060   COMPRESSED   0x00000034   Data   RW         3274    .data               can_receive.o
    0x20000094   COMPRESSED   0x0000000c   Data   RW         3355    .data               can.o
    0x200000a0   COMPRESSED   0x00000028   Data   RW         3403    .data               sbus.o
    0x200000c8   COMPRESSED   0x00000004   Data   RW         3477    .data               usart.o
    0x200000cc   COMPRESSED   0x00000001   Data   RW         3479    .data               usart.o
    0x200000cd   COMPRESSED   0x00000003   PAD
    0x200000d0   COMPRESSED   0x00000004   Data   RW         3480    .data               usart.o
    0x200000d4   COMPRESSED   0x00000004   Data   RW         3535    .data               pid.o
    0x200000d8   COMPRESSED   0x00000030   Data   RW         3596    .data               chassis.o
    0x20000108   COMPRESSED   0x00000004   Data   RW         3691    .data               niming.o
    0x2000010c   COMPRESSED   0x0000005c   Data   RW         3738    .data               superstratum.o
    0x20000168   COMPRESSED   0x00000008   Data   RW         3808    .data               mode_choic.o
    0x20000170   COMPRESSED   0x000000c0   Data   RW         3851    .data               auto.o
    0x20000230   COMPRESSED   0x00000010   Data   RW         3989    .data               add.o
    0x20000240   COMPRESSED   0x00000038   Data   RW         4033    .data               hwt101.o
    0x20000278   COMPRESSED   0x00000005   Data   RW         4048    .data               hwt101.o
    0x2000027d   COMPRESSED   0x00000003   PAD
    0x20000280   COMPRESSED   0x0000003c   Data   RW         4563    .data               tasks.o
    0x200002bc   COMPRESSED   0x00000020   Data   RW         4814    .data               heap_4.o
    0x200002dc   COMPRESSED   0x0000000c   Data   RW         4874    .data               port.o
    0x200002e8   COMPRESSED   0x00000004   Data   RW         5479    .data               mc_w.l(mvars.o)
    0x200002ec   COMPRESSED   0x00000004   Data   RW         5480    .data               mc_w.l(mvars.o)
    0x200002f0   COMPRESSED   0x00000004   Data   RW         5484    .data               mc_w.l(errno.o)
    0x200002f4        -       0x000002d0   Zero   RW           18    .bss                main.o
    0x200005c4        -       0x00000254   Zero   RW          460    .bss                freertos.o
    0x20000818        -       0x00000040   Zero   RW          551    .bss                tim.o
    0x20000858        -       0x000003c0   Zero   RW          632    .bss                stm32f4xx_hal_can.o
    0x20000c18        -       0x00000270   Zero   RW         3272    .bss                can_receive.o
    0x20000e88        -       0x00000050   Zero   RW         3354    .bss                can.o
    0x20000ed8        -       0x000000c8   Zero   RW         3402    .bss                sbus.o
    0x20000fa0        -       0x00000120   Zero   RW         3475    .bss                usart.o
    0x200010c0        -       0x00000060   Zero   RW         3476    .bss                usart.o
    0x20001120        -       0x00000480   Zero   RW         3594    .bss                chassis.o
    0x200015a0        -       0x000002e4   Zero   RW         3735    .bss                superstratum.o
    0x20001884        -       0x00000010   Zero   RW         3736    .bss                superstratum.o
    0x20001894        -       0x00000050   Zero   RW         3987    .bss                add.o
    0x200018e4        -       0x00000132   Zero   RW         4031    .bss                hwt101.o
    0x20001a16   COMPRESSED   0x00000002   PAD
    0x20001a18        -       0x000000f0   Zero   RW         4562    .bss                tasks.o
    0x20001b08        -       0x00005000   Zero   RW         4813    .bss                heap_4.o
    0x20006b08        -       0x00000200   Zero   RW            2    HEAP                startup_stm32f429xx.o
    0x20006d08        -       0x00000400   Zero   RW            1    STACK               startup_stm32f429xx.o


==============================================================================

Image component sizes


      Code (inc. data)   RO Data    RW Data    ZI Data      Debug   Object Name

       332         36          0         16         80       1674   add.o
      3632        584          0        192          0      13561   auto.o
       278         26          0         12         80       2065   can.o
       960         94          0         52        624       7660   can_receive.o
      2942        244          0         48       1152      11207   chassis.o
       144          0          0          0          0      28967   cmsis_os.o
         0          0          0          0          0      16892   event_groups.o
       284         18        240         32        596       5626   freertos.o
       568         24          0         32      20480       6751   heap_4.o
       520         76          0         61        306       4891   hwt101.o
       148          0          0          0          0       3594   list.o
       660         70          0         12        720     799017   main.o
       188         18          0          8          0       1342   mode_choic.o
        56          6          0          4          0       1200   niming.o
       452         12          0          4          0       3564   pid.o
       810         90          0         12          0      11917   port.o
      1164         96          0         40        200       9676   sbus.o
        36          8        428          0       1536        832   startup_stm32f429xx.o
       184         30          0         12          0       9569   stm32f4xx_hal.o
      2166         40          0          8        960      17689   stm32f4xx_hal_can.o
       248         16          0          0          0      34217   stm32f4xx_hal_cortex.o
      1176         20          8          0          0       6437   stm32f4xx_hal_dma.o
      1000         34          0          0          0       3953   stm32f4xx_hal_gpio.o
       932         78          0          4          0       4021   stm32f4xx_hal_msp.o
       120         12          0          0          0       1268   stm32f4xx_hal_pwr_ex.o
      1524        104          0          0          0       5448   stm32f4xx_hal_rcc.o
       706         20          0          0          0       8016   stm32f4xx_hal_tim.o
       154          0          0          0          0       2469   stm32f4xx_hal_tim_ex.o
      2926         20          0          0          0      18261   stm32f4xx_hal_uart.o
       232         62          0         20          0       8130   stm32f4xx_it.o
         0          0          0          0          0        392   stream_buffer.o
      2280        232          0         92        756      10532   superstratum.o
        28          8         24          4          0       1163   system_stm32f4xx.o
      1898        136          0         60        240      21116   tasks.o
       200         34          0          4         64       2286   tim.o
       340         60          0          9        384       3607   usart.o

    ----------------------------------------------------------------------
     29350       2320        732        744      28180    1089010   Object Totals
         0          0         32          0          0          0   (incl. Generated)
        62         12          0          6          2          0   (incl. Padding)

    ----------------------------------------------------------------------

      Code (inc. data)   RO Data    RW Data    ZI Data      Debug   Library Member Name

       744        106        152          0          0        352   atan.o
       512         64          0          0          0        208   atan2.o
        72          8          0          0          0        372   dunder.o
        24          0          0          0          0        124   fabs.o
        48          0          0          0          0        124   fpclassify.o
       248          0          0          0          0        152   poly.o
         0          0          8          0          0          0   qnan.o
       122          0          0          0          0        148   sqrt.o
        58          0          0          0          0          0   __dczerorl.o
         0          0          0          0          0          0   entry.o
         0          0          0          0          0          0   entry10a.o
         0          0          0          0          0          0   entry11a.o
         4          0          0          0          0          0   entry12b.o
         8          4          0          0          0          0   entry2.o
         4          0          0          0          0          0   entry5.o
         0          0          0          0          0          0   entry7b.o
         0          0          0          0          0          0   entry8b.o
         8          4          0          0          0          0   entry9a.o
        12          6          0          4          0         68   errno.o
        30          0          0          0          0          0   handlers.o
        36          8          0          0          0         68   init.o
         0          0          0          0          0          0   iusefp.o
        30          0          0          0          0         68   llshl.o
        36          0          0          0          0         68   llsshr.o
        32          0          0          0          0         68   llushr.o
       188         20          0          0          0        160   malloc.o
        36          0          0          0          0        108   memseta.o
         0          0          0          8          0          0   mvars.o
        98          0          0          0          0         92   uldiv.o
        48          0          0          0          0         68   cdcmple.o
        48          0          0          0          0         68   cdrcmple.o
        56          0          0          0          0         88   d2f.o
       334          0          0          0          0        148   dadd.o
       222          0          0          0          0        100   ddiv.o
       186          0          0          0          0        176   depilogue.o
        62          0          0          0          0         80   dfixi.o
        34          0          0          0          0         76   dflti.o
       228          0          0          0          0         96   dmul.o
       162          0          0          0          0        100   dsqrt.o
        38          0          0          0          0         68   f2d.o
       110          0          0          0          0        168   fepilogue.o

    ----------------------------------------------------------------------
      3894        220        160         12          0       3416   Library Totals
        16          0          0          0          0          0   (incl. Padding)

    ----------------------------------------------------------------------

      Code (inc. data)   RO Data    RW Data    ZI Data      Debug   Library Name

      1770        178        160          0          0       1480   m_wm.l
       580         42          0         12          0        700   mc_w.l
      1528          0          0          0          0       1236   mf_w.l

    ----------------------------------------------------------------------
      3894        220        160         12          0       3416   Library Totals

    ----------------------------------------------------------------------

==============================================================================


      Code (inc. data)   RO Data    RW Data    ZI Data      Debug   

     33244       2540        892        756      28180    1071974   Grand Totals
     33244       2540        892         72      28180    1071974   ELF Image Totals (compressed)
     33244       2540        892         72          0          0   ROM Totals

==============================================================================

    Total RO  Size (Code + RO Data)                34136 (  33.34kB)
    Total RW  Size (RW Data + ZI Data)             28936 (  28.26kB)
    Total ROM Size (Code + RO Data + RW Data)      34208 (  33.41kB)

==============================================================================

